Certificate:
    Data:
        Version: 3 (0x2)
        Serial Number: 1048577 (0x100001)
    Signature Algorithm: sha1WithRSAEncryption
        Issuer: CN=OcedoCA
        Validity
            Not Before: Mar  9 06:31:56 2018 GMT
            Not After : Jul 24 06:31:56 2045 GMT
        Subject: CN=core-dns.cc
        Subject Public Key Info:
            Public Key Algorithm: rsaEncryption
                Public-Key: (4096 bit)
                Modulus:
                    00:c2:a2:16:48:3d:e6:56:89:6f:02:3b:ba:eb:59:
                    09:3d:1e:96:14:8c:38:a4:1e:a8:e3:63:80:4e:08:
                    1d:3e:47:b3:60:af:ce:5a:8f:32:13:1e:e2:77:c5:
                    05:27:f2:4a:18:52:ad:cc:78:ce:8e:87:1e:9c:2f:
                    a3:ae:21:f3:1a:09:dc:8f:fc:2c:0f:b9:71:94:29:
                    81:52:22:c5:46:d2:a4:bf:54:a0:95:08:bb:49:30:
                    6a:29:5f:e4:a6:37:1d:f9:50:43:6e:8f:c6:4c:96:
                    0d:b2:60:c9:0c:34:f5:86:d5:71:c6:fc:4c:eb:08:
                    5f:24:4b:1a:cb:a2:1d:09:55:06:f0:fe:8d:ac:79:
                    64:92:18:df:40:73:95:ff:0f:39:a3:5a:89:b3:bc:
                    43:84:c5:ad:34:f1:93:a3:e2:b6:39:c8:e2:d7:69:
                    28:6a:7a:13:a9:1f:e2:ed:a6:29:bc:12:64:28:23:
                    36:c6:88:39:ed:b3:5a:3a:32:5d:16:67:66:75:31:
                    54:78:39:4a:f6:d7:b4:98:4a:2a:c1:7a:a5:93:7b:
                    74:aa:b7:94:1b:b8:79:74:14:f6:61:91:b6:18:7a:
                    08:21:6a:0a:06:9f:5b:77:8d:87:69:2b:d3:51:e4:
                    97:e3:be:b3:30:3e:ce:ac:c7:a2:6b:45:6c:0c:17:
                    a0:41:47:40:57:6e:5a:32:23:48:9b:13:3b:54:01:
                    d2:7a:4c:6f:b7:6a:10:2d:71:a7:38:c2:86:cd:d4:
                    77:9f:ae:a5:cc:3a:3d:9e:1b:9f:2a:ca:94:1d:bb:
                    22:dd:17:4a:68:65:db:67:a4:08:85:a1:4f:62:f7:
                    7a:c7:80:d8:25:a5:d5:42:30:d2:c7:84:27:29:f7:
                    5b:6f:b0:4a:18:9a:42:8f:db:9b:34:2a:ff:61:e7:
                    e9:2b:47:81:09:f1:a1:80:18:7f:1a:b9:ab:e8:05:
                    7d:f2:3b:e0:94:8e:ec:e8:71:86:8e:5a:e6:15:9d:
                    8b:4c:8c:3f:40:4f:7d:3a:b2:b8:1a:d9:e0:5f:87:
                    fe:9c:a0:10:33:7d:9a:22:dc:a7:b2:cf:29:64:cd:
                    ce:fe:b3:49:f9:02:18:57:17:56:38:19:41:d0:d8:
                    43:52:d3:54:35:87:27:d7:f5:53:a3:22:c2:08:6f:
                    25:f7:e5:a6:da:b0:7a:42:e0:46:10:29:c6:6b:6f:
                    d5:3a:cb:ee:a1:68:ff:b0:16:1d:11:e1:ee:51:13:
                    c9:ae:1b:cc:cc:f9:5f:ea:d5:9e:a9:c1:d5:a9:66:
                    c1:f2:33:87:72:7d:d9:6a:48:6c:e0:dd:a1:5e:62:
                    e6:a8:bc:69:bc:fe:a9:91:44:6d:20:e3:18:99:62:
                    42:b7:a5
                Exponent: 65537 (0x10001)
        X509v3 extensions:
            X509v3 Basic Constraints: 
                CA:FALSE
            X509v3 Subject Key Identifier: 
                A9:96:BF:10:A9:30:BB:70:70:A5:07:8F:5F:D9:C5:A4:CA:05:ED:67
            X509v3 Authority Key Identifier: 
                keyid:52:AA:8A:2C:0F:A1:D1:40:27:C1:8F:CD:C1:11:24:6C:78:E7:E4:43

    Signature Algorithm: sha1WithRSAEncryption
         3c:93:39:e1:d3:e5:15:1f:ee:9c:8b:e5:f7:93:dc:9f:0b:d1:
         c2:49:2f:96:a9:4a:ef:ef:15:99:c8:f6:84:c9:bd:81:b3:dc:
         72:72:57:90:30:9a:f3:d4:d6:b8:aa:bf:fc:42:69:7e:90:41:
         72:4a:cd:e0:b6:ab:32:e5:b1:f6:06:87:ad:22:28:ff:83:78:
         a6:6d:e8:5a:36:46:ab:71:dc:6e:3d:c3:c6:e7:ae:8a:0b:fe:
         f8:f8:32:93:6c:30:66:f5:82:0d:3f:c9:b5:74:0b:45:66:31:
         8c:0b:37:57:aa:c8:7e:83:a5:76:90:1b:98:6b:41:80:ea:e5:
         0c:32:b7:90:b4:4b:fc:68:f4:08:f1:d3:40:83:56:51:4f:c9:
         ad:f5:46:2a:88:34:71:5f:4c:1d:11:f1:38:fe:97:bc:01:f9:
         a1:83:b5:de:7a:fe:8b:23:9f:9c:a6:03:e3:49:93:37:1d:fc:
         bc:c6:9b:fb:cc:e5:3f:28:9c:ff:5e:9e:4f:03:d5:59:51:f0:
         0a:b6:58:0a:5f:a4:00:72:d6:70:38:e9:d4:33:46:b2:08:b6:
         95:c4:21:0d:98:c1:75:70:2f:5a:1c:27:cf:b7:63:f8:ae:2e:
         cf:f0:42:04:28:12:e3:d3:66:2b:08:a8:ff:c6:1e:46:ea:89:
         d5:18:19:1d:60:9a:02:73:93:2f:97:a8:3d:89:24:41:18:7a:
         eb:fe:23:61:f3:e9:bd:c4:9e:4d:7e:5d:d0:3f:27:e3:f4:89:
         4c:73:bc:ed:2d:92:52:7e:21:46:e3:c4:6f:b8:11:a5:ea:18:
         3c:1e:ea:57:8d:b3:3d:6f:ef:b5:2a:d6:df:75:18:44:7f:50:
         7f:8c:6b:38:52:4a:66:e2:54:d1:af:70:a4:92:22:af:09:da:
         84:0f:28:e9:93:3f:b4:94:77:84:9e:58:f2:b6:90:57:d9:4f:
         61:30:b6:24:55:82:44:5b:78:07:9f:ac:8d:ff:28:fa:8a:b5:
         6d:65:53:f6:f9:d9:a8:b6:06:66:68:83:29:9b:e3:fd:f0:68:
         3f:a6:f4:d6:e4:37:aa:e2:51:1b:63:72:5e:b4:62:0b:79:2e:
         2c:1b:a6:87:e0:57:35:a7:d6:df:80:59:be:55:b1:c7:a4:06:
         11:65:92:87:f7:ba:8a:0a:15:c6:e8:73:39:12:94:5d:05:17:
         e5:4e:ba:06:82:76:e3:44:3a:5b:01:47:81:6c:f3:c3:0b:c6:
         9f:4f:8c:f9:e8:3f:84:6f:96:ce:2b:32:2a:f5:74:f6:fa:26:
         b3:1d:7f:40:c6:a0:e2:78:4c:98:d5:b4:77:5d:23:34:a3:29:
         b8:8a:60:33:27:d5:07:66
-----BEGIN CERTIFICATE-----
MIIE8jCCAtqgAwIBAgIDEAABMA0GCSqGSIb3DQEBBQUAMBIxEDAOBgNVBAMMB09j
ZWRvQ0EwHhcNMTgwMzA5MDYzMTU2WhcNNDUwNzI0MDYzMTU2WjAWMRQwEgYDVQQD
DAtjb3JlLWRucy5jYzCCAiIwDQYJKoZIhvcNAQEBBQADggIPADCCAgoCggIBAMKi
Fkg95laJbwI7uutZCT0elhSMOKQeqONjgE4IHT5Hs2CvzlqPMhMe4nfFBSfyShhS
rcx4zo6HHpwvo64h8xoJ3I/8LA+5cZQpgVIixUbSpL9UoJUIu0kwailf5KY3HflQ
Q26PxkyWDbJgyQw09YbVccb8TOsIXyRLGsuiHQlVBvD+jax5ZJIY30Bzlf8POaNa
ibO8Q4TFrTTxk6PitjnI4tdpKGp6E6kf4u2mKbwSZCgjNsaIOe2zWjoyXRZnZnUx
VHg5SvbXtJhKKsF6pZN7dKq3lBu4eXQU9mGRthh6CCFqCgafW3eNh2kr01Hkl+O+
szA+zqzHomtFbAwXoEFHQFduWjIjSJsTO1QB0npMb7dqEC1xpzjChs3Ud5+upcw6
PZ4bnyrKlB27It0XSmhl22ekCIWhT2L3eseA2CWl1UIw0seEJyn3W2+wShiaQo/b
mzQq/2Hn6StHgQnxoYAYfxq5q+gFffI74JSO7Ohxho5a5hWdi0yMP0BPfTqyuBrZ
4F+H/pygEDN9miLcp7LPKWTNzv6zSfkCGFcXVjgZQdDYQ1LTVDWHJ9f1U6Miwghv
JfflptqwekLgRhApxmtv1TrL7qFo/7AWHRHh7lETya4bzMz5X+rVnqnB1almwfIz
h3J92WpIbODdoV5i5qi8abz+qZFEbSDjGJliQrelAgMBAAGjTTBLMAkGA1UdEwQC
MAAwHQYDVR0OBBYEFKmWvxCpMLtwcKUHj1/ZxaTKBe1nMB8GA1UdIwQYMBaAFFKq
iiwPodFAJ8GPzcERJGx45+RDMA0GCSqGSIb3DQEBBQUAA4ICAQA8kznh0+UVH+6c
i+X3k9yfC9HCSS+WqUrv7xWZyPaEyb2Bs9xycleQMJrz1Na4qr/8Qml+kEFySs3g
tqsy5bH2BoetIij/g3imbehaNkarcdxuPcPG566KC/74+DKTbDBm9YINP8m1dAtF
ZjGMCzdXqsh+g6V2kBuYa0GA6uUMMreQtEv8aPQI8dNAg1ZRT8mt9UYqiDRxX0wd
EfE4/pe8Afmhg7Xeev6LI5+cpgPjSZM3Hfy8xpv7zOU/KJz/Xp5PA9VZUfAKtlgK
X6QActZwOOnUM0ayCLaVxCENmMF1cC9aHCfPt2P4ri7P8EIEKBLj02YrCKj/xh5G
6onVGBkdYJoCc5Mvl6g9iSRBGHrr/iNh8+m9xJ5Nfl3QPyfj9IlMc7ztLZJSfiFG
48RvuBGl6hg8HupXjbM9b++1KtbfdRhEf1B/jGs4Ukpm4lTRr3CkkiKvCdqEDyjp
kz+0lHeEnljytpBX2U9hMLYkVYJEW3gHn6yN/yj6irVtZVP2+dmotgZmaIMpm+P9
8Gg/pvTW5Deq4lEbY3JetGILeS4sG6aH4Fc1p9bfgFm+VbHHpAYRZZKH97qKChXG
6HM5EpRdBRflTroGgnbjRDpbAUeBbPPDC8afT4z56D+Eb5bOKzIq9XT2+iazHX9A
xqDieEyY1bR3XSM0oym4imAzJ9UHZg==
-----END CERTIFICATE-----
