Certificate:
    Data:
        Version: 3 (0x2)
        Serial Number: 1048596 (0x100014)
    Signature Algorithm: sha1WithRSAEncryption
        Issuer: CN=OcedoCA
        Validity
            Not Before: Apr 13 11:06:36 2018 GMT
            Not After : Aug 28 11:06:36 2045 GMT
        Subject: CN=XN0E87E72E351B90
        Subject Public Key Info:
            Public Key Algorithm: rsaEncryption
                Public-Key: (4096 bit)
                Modulus:
                    00:b0:8c:22:41:41:b2:70:30:c7:19:ad:3e:23:45:
                    ed:6f:d2:ab:75:88:0c:f9:00:11:3e:0b:86:12:71:
                    ad:ab:6f:9a:0a:79:9d:59:89:84:c5:7d:81:c4:55:
                    da:37:55:73:be:96:6b:63:c5:5b:61:7a:d9:cb:6d:
                    91:ec:e5:fb:70:33:f7:b4:8f:d8:b5:dc:82:e1:9f:
                    e6:25:06:40:12:39:ca:da:66:02:60:f1:89:e3:10:
                    11:07:0f:d9:50:95:72:de:ec:9c:f2:d5:99:7f:2e:
                    da:b1:b8:44:7d:50:f1:3f:64:69:57:d9:5b:6f:64:
                    ba:dc:e3:7f:0a:50:ff:40:07:31:09:14:b4:a7:5e:
                    30:87:95:07:eb:44:87:f1:91:95:89:e0:ae:83:c7:
                    8e:c6:31:55:21:a6:0f:13:2b:d6:6d:e5:30:50:bb:
                    e4:64:79:c2:2d:63:9f:26:78:bd:b8:7e:eb:33:33:
                    3c:90:0e:c1:42:b7:d2:42:9a:a0:00:a8:0d:b1:6f:
                    cd:db:a3:88:e4:bf:2b:ea:50:1e:24:45:a5:3f:72:
                    aa:df:56:79:a1:ca:ee:c5:82:6d:a6:19:6c:54:8f:
                    d4:59:3d:73:dd:e5:f9:b8:4f:9b:db:14:c5:bc:bb:
                    ed:e0:42:5d:15:21:df:f2:c4:4c:17:ed:5e:c4:fa:
                    c5:7b:f7:25:da:1e:07:a0:c2:c4:7b:aa:c1:33:cf:
                    69:57:f0:bd:dc:4b:08:c5:65:b0:d3:1d:1e:07:ff:
                    ee:a0:c8:1b:43:cb:4d:f0:ae:97:1b:65:dd:29:a0:
                    1f:76:a2:fc:bd:dc:cf:29:ef:b1:9c:00:36:e9:7b:
                    3e:c3:92:23:fe:54:9c:a7:f2:16:94:62:fc:e1:43:
                    1b:0c:ba:57:78:69:9e:2b:b4:f4:91:9b:4f:48:0b:
                    33:c7:1a:80:fa:f0:2c:38:30:ca:3e:b5:cb:c3:5d:
                    88:b0:88:97:45:85:cb:5d:e2:86:cf:be:27:20:a7:
                    b5:30:05:b7:41:d9:6e:12:cc:3c:14:06:14:72:2d:
                    1f:47:67:e7:40:0a:4b:8c:91:47:a8:88:59:4b:28:
                    65:e4:b3:e0:07:88:31:ab:86:68:94:60:87:3b:08:
                    80:df:8d:66:3a:1f:7e:9f:41:a3:39:5a:f4:7c:dc:
                    c6:c2:c3:4b:88:71:79:a0:8b:a9:6c:d1:98:b7:5a:
                    07:09:ef:52:5a:92:4a:47:b0:1a:e6:b1:3e:83:a1:
                    b5:bf:83:15:0b:93:ba:68:0f:ad:50:1e:80:d9:8f:
                    6f:26:49:41:49:fd:5c:de:80:e3:fe:74:f4:d2:45:
                    64:ae:c0:5b:2c:c4:67:7a:62:e6:b9:c6:79:56:1c:
                    f0:b4:21
                Exponent: 65537 (0x10001)
        X509v3 extensions:
            X509v3 Basic Constraints: 
                CA:FALSE
            X509v3 Subject Key Identifier: 
                40:E3:2A:12:AC:99:0B:21:F8:FE:BD:85:8E:F4:33:C2:E8:C5:88:47
            X509v3 Authority Key Identifier: 
                keyid:52:AA:8A:2C:0F:A1:D1:40:27:C1:8F:CD:C1:11:24:6C:78:E7:E4:43

    Signature Algorithm: sha1WithRSAEncryption
         01:94:c7:e0:53:89:4b:6c:35:c6:ca:5f:bc:42:e8:2d:d5:5c:
         98:9f:0e:bf:2d:e1:c8:a7:ac:3a:58:d9:6a:dd:ae:4a:89:04:
         65:8d:0e:1c:0a:71:8b:b4:62:f5:ef:07:3f:21:0f:35:9d:9e:
         36:b5:18:78:49:65:4c:7a:a7:5c:91:da:de:b9:4e:92:a0:21:
         66:19:15:80:6a:b0:f8:bc:eb:bc:02:69:ca:a9:04:af:d6:57:
         e9:91:cb:4a:15:c1:e5:53:06:f4:07:90:ab:38:44:36:59:ea:
         10:27:94:6f:cf:8a:76:0a:01:b3:dc:64:50:7c:99:35:3d:95:
         61:5b:b2:b7:eb:a7:76:8b:75:e7:8a:51:8d:c0:94:d6:a1:64:
         07:83:78:d1:c5:fe:33:94:d9:6a:ac:ff:46:1d:11:40:4b:98:
         f8:52:31:c3:df:3d:f7:50:c7:75:cc:26:65:fd:34:23:1f:df:
         1e:d7:88:bb:3e:61:5b:be:a6:f5:ee:5b:57:e8:00:0f:11:25:
         92:c0:03:f4:96:6e:1f:05:06:85:f7:57:36:cd:59:9e:5c:79:
         bd:68:0c:54:21:59:03:19:a7:e3:9c:e1:12:2a:a8:9f:3b:4d:
         34:2d:a5:55:2c:67:d5:2e:bf:2d:1f:ca:23:95:a3:a7:c3:b3:
         ad:e2:eb:76:50:ed:4e:4f:42:48:d9:5f:17:1e:2f:45:f9:e3:
         9d:f3:74:9b:00:cd:bf:ec:fc:a0:1f:ee:31:26:f8:30:63:34:
         d5:eb:e6:04:5e:c4:d4:9f:f9:69:b1:14:a3:88:3b:62:b9:17:
         7e:63:ca:ab:14:8d:eb:48:0f:cb:31:78:de:63:a8:e2:03:0d:
         25:00:95:d9:e4:33:a7:2e:96:a7:a2:be:39:15:29:20:b6:a0:
         e3:bc:d6:62:fb:36:64:64:ce:e7:10:ae:23:e2:84:4f:c6:74:
         c5:78:8e:cb:2c:a1:58:98:f4:97:26:d0:70:80:5d:68:82:b9:
         4f:3f:8b:f7:3d:35:b2:b7:a5:1b:30:bd:e0:5d:37:d5:3c:b5:
         d4:92:f4:3d:ec:15:88:24:09:0a:17:0a:50:b8:3f:9d:3a:c9:
         78:98:9e:0d:c8:2c:bc:90:11:e4:27:c1:77:ec:27:b5:c7:fd:
         e2:26:f0:72:97:52:af:ab:fc:33:5c:b0:dd:31:e8:82:7c:3f:
         2d:60:c2:73:59:c2:ec:57:5b:e2:da:ea:2e:fd:57:32:b2:cf:
         2a:1e:f8:aa:92:7d:05:a1:65:c5:4a:2c:d5:00:01:69:ee:d7:
         73:7a:28:93:c1:c6:9b:ac:da:0f:20:a8:58:b0:fc:e1:cd:b9:
         5e:6c:db:7d:d0:21:56:d5
-----BEGIN CERTIFICATE-----
MIIE9zCCAt+gAwIBAgIDEAAUMA0GCSqGSIb3DQEBBQUAMBIxEDAOBgNVBAMMB09j
ZWRvQ0EwHhcNMTgwNDEzMTEwNjM2WhcNNDUwODI4MTEwNjM2WjAbMRkwFwYDVQQD
DBBYTjBFODdFNzJFMzUxQjkwMIICIjANBgkqhkiG9w0BAQEFAAOCAg8AMIICCgKC
AgEAsIwiQUGycDDHGa0+I0Xtb9KrdYgM+QARPguGEnGtq2+aCnmdWYmExX2BxFXa
N1VzvpZrY8VbYXrZy22R7OX7cDP3tI/YtdyC4Z/mJQZAEjnK2mYCYPGJ4xARBw/Z
UJVy3uyc8tWZfy7asbhEfVDxP2RpV9lbb2S63ON/ClD/QAcxCRS0p14wh5UH60SH
8ZGVieCug8eOxjFVIaYPEyvWbeUwULvkZHnCLWOfJni9uH7rMzM8kA7BQrfSQpqg
AKgNsW/N26OI5L8r6lAeJEWlP3Kq31Z5ocruxYJtphlsVI/UWT1z3eX5uE+b2xTF
vLvt4EJdFSHf8sRMF+1exPrFe/cl2h4HoMLEe6rBM89pV/C93EsIxWWw0x0eB//u
oMgbQ8tN8K6XG2XdKaAfdqL8vdzPKe+xnAA26Xs+w5Ij/lScp/IWlGL84UMbDLpX
eGmeK7T0kZtPSAszxxqA+vAsODDKPrXLw12IsIiXRYXLXeKGz74nIKe1MAW3Qdlu
Esw8FAYUci0fR2fnQApLjJFHqIhZSyhl5LPgB4gxq4ZolGCHOwiA341mOh9+n0Gj
OVr0fNzGwsNLiHF5oIupbNGYt1oHCe9SWpJKR7Aa5rE+g6G1v4MVC5O6aA+tUB6A
2Y9vJklBSf1c3oDj/nT00kVkrsBbLMRnemLmucZ5VhzwtCECAwEAAaNNMEswCQYD
VR0TBAIwADAdBgNVHQ4EFgQUQOMqEqyZCyH4/r2FjvQzwujFiEcwHwYDVR0jBBgw
FoAUUqqKLA+h0UAnwY/NwREkbHjn5EMwDQYJKoZIhvcNAQEFBQADggIBAAGUx+BT
iUtsNcbKX7xC6C3VXJifDr8t4cinrDpY2WrdrkqJBGWNDhwKcYu0YvXvBz8hDzWd
nja1GHhJZUx6p1yR2t65TpKgIWYZFYBqsPi867wCacqpBK/WV+mRy0oVweVTBvQH
kKs4RDZZ6hAnlG/PinYKAbPcZFB8mTU9lWFbsrfrp3aLdeeKUY3AlNahZAeDeNHF
/jOU2Wqs/0YdEUBLmPhSMcPfPfdQx3XMJmX9NCMf3x7XiLs+YVu+pvXuW1foAA8R
JZLAA/SWbh8FBoX3VzbNWZ5ceb1oDFQhWQMZp+Oc4RIqqJ87TTQtpVUsZ9Uuvy0f
yiOVo6fDs63i63ZQ7U5PQkjZXxceL0X5453zdJsAzb/s/KAf7jEm+DBjNNXr5gRe
xNSf+WmxFKOIO2K5F35jyqsUjetID8sxeN5jqOIDDSUAldnkM6culqeivjkVKSC2
oOO81mL7NmRkzucQriPihE/GdMV4jsssoViY9Jcm0HCAXWiCuU8/i/c9NbK3pRsw
veBdN9U8tdSS9D3sFYgkCQoXClC4P506yXiYng3ILLyQEeQnwXfsJ7XH/eIm8HKX
Uq+r/DNcsN0x6IJ8Py1gwnNZwuxXW+La6i79VzKyzyoe+KqSfQWhZcVKLNUAAWnu
13N6KJPBxpus2g8gqFiw/OHNuV5s233QIVbV
-----END CERTIFICATE-----
