Certificate:
    Data:
        Version: 3 (0x2)
        Serial Number: 1048599 (0x100017)
    Signature Algorithm: sha1WithRSAEncryption
        Issuer: CN=OcedoCA
        Validity
            Not Before: Apr 16 07:14:02 2018 GMT
            Not After : Aug 31 07:14:02 2045 GMT
        Subject: CN=XN5D5C1128DDC978
        Subject Public Key Info:
            Public Key Algorithm: rsaEncryption
                Public-Key: (4096 bit)
                Modulus:
                    00:be:51:ec:1c:1b:81:9b:b2:9f:fd:e3:8e:2e:cc:
                    c7:7c:99:e1:5e:49:59:72:7a:08:e3:29:1e:17:9d:
                    08:20:91:34:89:c7:ca:ed:62:f1:81:05:6f:8e:e3:
                    15:7a:0a:c3:4d:ab:58:cf:b4:9b:23:44:94:d4:72:
                    24:86:25:fe:ba:0e:7a:56:1f:a5:be:88:b9:c9:98:
                    33:5b:79:4f:f3:cf:3a:a9:3d:b7:01:77:9b:e0:66:
                    b2:13:4b:6f:0a:ce:4a:7d:b4:6d:a5:bc:33:0f:99:
                    b8:6c:64:6a:b4:43:d2:b3:d4:22:e5:1b:77:f9:49:
                    97:ff:1f:e5:57:1e:13:79:0e:c0:47:00:37:87:d3:
                    0c:a5:0a:af:85:cf:d6:77:74:ae:c7:c8:af:bd:24:
                    11:5f:fe:ac:ed:c4:45:39:f5:15:1d:47:0d:1c:3e:
                    d1:d1:60:c8:5d:63:d1:4f:f6:f0:95:d8:de:a7:09:
                    84:9d:8d:91:c6:41:1e:b8:da:62:f9:50:5f:77:09:
                    bb:6d:8e:b8:02:fd:93:cf:95:a5:92:0d:57:62:17:
                    8f:be:29:f2:f1:0d:83:08:33:e3:f4:40:22:91:2e:
                    2b:76:7b:4d:47:c7:c9:01:6d:9c:20:62:f1:0d:0a:
                    56:85:48:90:32:ba:7d:3a:c6:e5:c2:43:16:47:8d:
                    75:59:58:c2:00:f6:b0:d4:47:cc:77:f4:e3:84:27:
                    3b:80:72:85:c2:68:b9:8e:5a:68:6d:8a:ec:f9:b8:
                    87:2a:27:e1:9e:e0:b0:25:20:b8:ce:c7:39:5b:77:
                    07:95:f9:0e:c1:c8:36:18:26:71:09:d7:23:cc:15:
                    66:60:3f:ca:d4:32:23:70:78:b7:f7:d3:cd:90:27:
                    a4:90:b6:a8:3c:13:2f:a3:eb:08:fc:c6:8a:f5:b3:
                    08:6a:de:6c:2f:50:7c:bc:3c:dc:5d:b6:06:b8:e0:
                    57:43:fd:d6:65:7d:d0:19:0b:fb:eb:9e:19:19:68:
                    a2:30:48:f8:6e:c5:97:5c:6d:da:3b:ad:1f:56:4b:
                    d7:07:da:e2:2b:04:04:52:20:58:1a:a2:05:32:fd:
                    14:77:0d:10:c3:e5:94:2f:b9:9f:95:9b:c0:04:c6:
                    af:68:68:44:94:86:f3:e6:0e:00:4c:d0:32:43:b9:
                    97:9f:28:73:09:64:62:4a:e8:0c:68:cc:5d:1a:6b:
                    a1:39:1d:58:ef:3a:f3:a5:62:81:0f:81:ce:70:df:
                    18:da:7d:f4:63:94:5d:ae:bb:84:dd:1d:ac:1a:fb:
                    a2:93:7c:7a:ab:f0:de:2b:ed:ff:d0:45:8d:8c:ae:
                    85:c6:a1:96:63:8c:54:87:38:55:fc:66:7d:ea:9b:
                    55:2b:4f
                Exponent: 65537 (0x10001)
        X509v3 extensions:
            X509v3 Basic Constraints: 
                CA:FALSE
            X509v3 Subject Key Identifier: 
                9E:17:DD:D9:B5:9E:74:1B:02:76:53:26:80:3F:8B:3F:36:22:2C:52
            X509v3 Authority Key Identifier: 
                keyid:52:AA:8A:2C:0F:A1:D1:40:27:C1:8F:CD:C1:11:24:6C:78:E7:E4:43

    Signature Algorithm: sha1WithRSAEncryption
         20:81:a8:a2:37:6f:22:00:d4:a4:f0:0f:f6:78:36:94:f1:88:
         03:0b:45:54:8b:95:08:fd:ab:ec:45:07:e6:cc:3b:4c:58:b0:
         47:72:41:20:c7:1b:c5:c6:dd:f4:23:b6:da:86:de:db:4a:07:
         7c:79:f7:fd:b3:e8:b9:98:fb:ac:c9:7c:e2:af:41:89:43:26:
         3f:40:86:e0:7e:e9:eb:4e:bd:92:2f:b7:49:f7:bd:89:96:32:
         00:34:2f:cf:c9:cc:4d:fd:98:a1:f5:ac:6e:20:67:64:8c:6a:
         d0:86:78:59:ec:fd:d3:a4:fe:64:05:a5:85:46:73:d7:82:40:
         6e:e5:71:9d:72:44:77:70:56:44:1b:c9:66:b8:74:d1:13:10:
         41:c4:9e:e1:25:6a:89:65:a4:0e:db:3f:a8:2e:fc:c1:86:4c:
         d6:52:4c:81:fc:30:9d:37:f9:3a:3f:93:57:46:1a:e1:a7:49:
         8b:1d:c8:1e:8d:71:19:e8:0d:23:88:a7:c8:75:47:92:58:3a:
         ba:a9:7f:e7:52:56:8d:c6:be:46:3a:97:a8:eb:31:9c:41:e4:
         75:3a:59:7f:3b:ae:b9:1b:f8:e5:96:68:a7:7b:90:31:c9:d3:
         48:e3:b6:69:2c:71:5e:c8:dc:97:69:45:5a:25:33:30:07:bc:
         27:ba:07:bd:d3:fd:73:e2:09:9c:63:f1:02:90:82:3d:0d:2e:
         3c:90:74:ed:eb:14:52:ca:cf:45:e4:c5:9e:b6:cd:c9:49:7c:
         76:78:3c:1e:53:ba:a9:cc:d8:3f:aa:a3:3f:89:80:1b:5d:ca:
         55:85:22:7d:3f:58:88:87:be:2a:d8:e7:67:bb:ba:06:95:b0:
         9b:6e:99:2f:12:7c:05:59:18:32:d9:13:40:81:b7:da:c1:34:
         4d:c5:c8:48:1a:2c:1c:13:9f:12:57:00:55:fc:2a:9a:7a:97:
         11:73:20:32:d7:a2:5f:dd:49:a9:0a:d5:4c:ee:f8:6d:0d:51:
         fc:64:fe:db:c9:00:b0:06:b4:fc:c5:39:d3:06:30:27:37:3f:
         74:a9:ae:f3:73:8e:21:16:3f:61:d8:b9:da:e4:fc:42:6f:6b:
         85:3e:fd:fb:c5:ac:c6:b7:4a:5b:e3:19:ef:27:91:0e:cd:72:
         13:b4:fc:4d:89:be:3a:00:93:32:35:a8:3e:66:d8:b2:4b:4f:
         bf:77:49:a1:38:c5:45:60:d7:a8:b4:eb:04:f1:ab:9e:2e:f1:
         9f:3d:ce:bc:83:23:c8:c1:3d:28:0c:cc:e7:ba:b7:95:4e:38:
         62:49:f9:50:d3:f2:5b:24:2f:34:8b:8d:aa:25:a4:81:10:b1:
         01:d3:70:55:53:46:a6:29
-----BEGIN CERTIFICATE-----
MIIE9zCCAt+gAwIBAgIDEAAXMA0GCSqGSIb3DQEBBQUAMBIxEDAOBgNVBAMMB09j
ZWRvQ0EwHhcNMTgwNDE2MDcxNDAyWhcNNDUwODMxMDcxNDAyWjAbMRkwFwYDVQQD
DBBYTjVENUMxMTI4RERDOTc4MIICIjANBgkqhkiG9w0BAQEFAAOCAg8AMIICCgKC
AgEAvlHsHBuBm7Kf/eOOLszHfJnhXklZcnoI4ykeF50IIJE0icfK7WLxgQVvjuMV
egrDTatYz7SbI0SU1HIkhiX+ug56Vh+lvoi5yZgzW3lP8886qT23AXeb4GayE0tv
Cs5KfbRtpbwzD5m4bGRqtEPSs9Qi5Rt3+UmX/x/lVx4TeQ7ARwA3h9MMpQqvhc/W
d3Sux8ivvSQRX/6s7cRFOfUVHUcNHD7R0WDIXWPRT/bwldjepwmEnY2RxkEeuNpi
+VBfdwm7bY64Av2Tz5Wlkg1XYhePviny8Q2DCDPj9EAikS4rdntNR8fJAW2cIGLx
DQpWhUiQMrp9OsblwkMWR411WVjCAPaw1EfMd/TjhCc7gHKFwmi5jlpobYrs+biH
KifhnuCwJSC4zsc5W3cHlfkOwcg2GCZxCdcjzBVmYD/K1DIjcHi399PNkCekkLao
PBMvo+sI/MaK9bMIat5sL1B8vDzcXbYGuOBXQ/3WZX3QGQv7654ZGWiiMEj4bsWX
XG3aO60fVkvXB9riKwQEUiBYGqIFMv0Udw0Qw+WUL7mflZvABMavaGhElIbz5g4A
TNAyQ7mXnyhzCWRiSugMaMxdGmuhOR1Y7zrzpWKBD4HOcN8Y2n30Y5RdrruE3R2s
Gvuik3x6q/DeK+3/0EWNjK6FxqGWY4xUhzhV/GZ96ptVK08CAwEAAaNNMEswCQYD
VR0TBAIwADAdBgNVHQ4EFgQUnhfd2bWedBsCdlMmgD+LPzYiLFIwHwYDVR0jBBgw
FoAUUqqKLA+h0UAnwY/NwREkbHjn5EMwDQYJKoZIhvcNAQEFBQADggIBACCBqKI3
byIA1KTwD/Z4NpTxiAMLRVSLlQj9q+xFB+bMO0xYsEdyQSDHG8XG3fQjttqG3ttK
B3x59/2z6LmY+6zJfOKvQYlDJj9AhuB+6etOvZIvt0n3vYmWMgA0L8/JzE39mKH1
rG4gZ2SMatCGeFns/dOk/mQFpYVGc9eCQG7lcZ1yRHdwVkQbyWa4dNETEEHEnuEl
aollpA7bP6gu/MGGTNZSTIH8MJ03+To/k1dGGuGnSYsdyB6NcRnoDSOIp8h1R5JY
Orqpf+dSVo3GvkY6l6jrMZxB5HU6WX87rrkb+OWWaKd7kDHJ00jjtmkscV7I3Jdp
RVolMzAHvCe6B73T/XPiCZxj8QKQgj0NLjyQdO3rFFLKz0XkxZ62zclJfHZ4PB5T
uqnM2D+qoz+JgBtdylWFIn0/WIiHvirY52e7ugaVsJtumS8SfAVZGDLZE0CBt9rB
NE3FyEgaLBwTnxJXAFX8Kpp6lxFzIDLXol/dSakK1Uzu+G0NUfxk/tvJALAGtPzF
OdMGMCc3P3SprvNzjiEWP2HYudrk/EJva4U+/fvFrMa3SlvjGe8nkQ7NchO0/E2J
vjoAkzI1qD5m2LJLT793SaE4xUVg16i06wTxq54u8Z89zryDI8jBPSgMzOe6t5VO
OGJJ+VDT8lskLzSLjaolpIEQsQHTcFVTRqYp
-----END CERTIFICATE-----
