Certificate:
    Data:
        Version: 3 (0x2)
        Serial Number: 1048585 (0x100009)
    Signature Algorithm: sha1WithRSAEncryption
        Issuer: CN=OcedoCA
        Validity
            Not Before: Apr 12 08:22:48 2018 GMT
            Not After : Aug 27 08:22:48 2045 GMT
        Subject: CN=CCB7F3B0BBDBB814, OU=RL33DAD4B4EC2E72
        Subject Public Key Info:
            Public Key Algorithm: rsaEncryption
                Public-Key: (4096 bit)
                Modulus:
                    00:b1:fc:53:0b:ac:03:0e:65:b5:4c:76:26:a6:30:
                    c8:c4:90:00:ae:79:f6:fc:08:73:6c:5b:98:fe:07:
                    ae:72:1c:c1:60:38:96:c8:2a:99:d0:4f:e4:ef:ca:
                    9c:d7:fd:a5:95:15:02:53:5e:ab:93:b0:7c:e4:6a:
                    3d:36:46:65:b1:37:59:78:5b:f4:4f:1b:b9:95:1a:
                    36:6e:1e:77:b6:74:98:aa:44:8d:8b:ac:ed:f3:1b:
                    5e:73:78:18:30:b0:18:ed:06:5e:8b:c7:f0:7d:0a:
                    88:a6:85:c2:1c:be:e5:1a:4b:43:a3:98:8c:03:ff:
                    a8:c0:7e:ea:9b:52:9e:67:3c:08:9e:2c:c1:13:f8:
                    8c:40:aa:89:1e:36:f3:c7:44:57:f4:5c:ff:c0:14:
                    2f:59:82:ae:8b:e8:80:50:be:13:61:a6:a8:0f:22:
                    cd:f7:b5:9a:d3:8e:8c:24:c5:43:db:2f:4b:5a:54:
                    50:82:bb:ed:99:64:f0:c9:64:f7:8d:c1:94:a1:e0:
                    6a:06:9e:c0:7b:fe:4b:9e:4a:6b:fe:f3:22:62:09:
                    9d:82:a2:c6:8c:34:eb:64:5f:11:ac:fe:df:8f:48:
                    5e:dd:e3:a3:ba:35:1d:50:08:b6:f5:a8:92:52:e7:
                    fd:b6:1e:ca:c3:59:01:8b:1e:d2:47:9c:c1:ae:2a:
                    e9:11:db:db:6c:90:26:84:c6:86:60:76:ec:10:b2:
                    37:90:20:2b:e1:18:5d:a0:23:47:9e:c2:01:c2:d5:
                    76:0a:10:b5:e7:4c:60:4b:28:da:69:0a:5a:26:5b:
                    64:c9:98:c6:c5:6e:64:52:a7:17:b5:57:2e:16:93:
                    49:56:ee:ff:3a:f6:e1:61:81:d4:76:9c:6d:c0:82:
                    cc:0f:31:3f:dd:2c:ed:89:15:dd:0e:1e:a5:04:0f:
                    19:4c:64:21:5e:20:62:f9:7d:f6:a9:5e:a8:fa:5f:
                    3c:2b:d4:e9:02:cc:ea:6c:89:27:76:fb:30:b9:6a:
                    5a:a9:90:33:79:51:e2:49:1f:f6:12:11:6b:43:69:
                    70:fe:79:ab:0b:5c:0b:7d:48:c3:15:b2:83:31:6f:
                    51:71:f8:a1:db:e0:6b:ed:7d:ef:6e:b5:e4:9b:8b:
                    99:da:2f:18:b2:93:3c:e8:8c:6a:4f:28:af:3f:99:
                    2c:73:1a:e5:40:a6:7c:b1:3f:e8:26:ab:3d:17:cc:
                    aa:02:8b:c6:14:6d:c4:ca:93:4a:ab:0e:66:45:36:
                    85:c8:64:27:f2:06:d7:d2:17:e1:6c:64:ef:80:4b:
                    28:1d:ff:cf:0b:fe:7f:cf:2e:f2:b8:2b:1b:7e:c9:
                    a3:15:4c:73:ae:5d:03:2a:9e:6f:12:67:a9:16:ce:
                    37:42:3b
                Exponent: 65537 (0x10001)
        X509v3 extensions:
            X509v3 Basic Constraints: 
                CA:FALSE
            X509v3 Subject Key Identifier: 
                66:5E:6E:81:60:4F:D5:DB:CF:BA:5F:D4:68:C6:4F:32:9F:68:94:D3
            X509v3 Authority Key Identifier: 
                keyid:52:AA:8A:2C:0F:A1:D1:40:27:C1:8F:CD:C1:11:24:6C:78:E7:E4:43

    Signature Algorithm: sha1WithRSAEncryption
         06:65:b6:05:26:94:93:3b:74:9b:28:da:af:3b:0b:2b:e6:01:
         b7:d7:b3:bf:1a:6c:1c:f7:56:c3:56:76:b2:a6:e7:07:94:41:
         35:54:59:36:10:2c:b5:3e:fb:83:b8:d4:37:96:dd:7e:e1:4c:
         b6:4e:7b:a7:8c:c3:e1:4c:56:3d:8d:f4:35:4b:56:f9:82:f4:
         1a:73:08:02:7e:df:cf:33:45:c3:6a:f1:65:6d:7a:02:02:63:
         b7:83:b0:12:3b:07:4b:8b:2f:1a:75:82:97:9a:18:aa:93:c4:
         40:ff:9a:a3:88:64:ee:3c:c0:1c:eb:ea:d5:f4:7c:18:56:2e:
         1e:5a:ab:76:2e:d3:81:d5:88:9d:dd:69:31:1f:0c:87:e9:7e:
         62:35:53:fd:55:bf:da:1b:8a:33:f7:a1:2e:47:82:ac:59:81:
         04:20:47:30:31:d9:0d:31:19:8b:e1:45:0f:8a:0c:0c:e1:97:
         33:50:27:c7:85:33:20:05:08:ea:a9:bf:43:1c:86:54:1f:5a:
         87:89:11:86:fb:f4:7e:2d:2c:9a:d0:5f:e6:0e:87:6b:3b:12:
         58:ce:bb:b2:3b:16:09:50:2d:1a:21:66:a0:31:3e:13:7d:4b:
         f2:16:c1:fe:e4:f0:e3:38:47:9b:05:03:f3:7a:03:8a:54:68:
         63:8f:3f:53:99:ca:58:b1:70:bb:3b:73:1f:57:20:79:a2:e7:
         08:b6:ef:c6:f9:15:f8:aa:cd:89:ca:30:8e:8f:fd:7f:31:31:
         0b:88:3c:27:71:7e:0a:2f:24:96:61:5e:62:3a:f2:e7:28:47:
         3e:32:47:9e:49:a1:87:3b:e6:3c:7a:40:e6:d5:ec:5b:23:1a:
         f2:f9:1b:a4:4a:70:e4:f8:8d:0a:b4:93:af:c8:9b:ee:e4:a6:
         b2:b2:ba:f7:a9:e6:0e:7b:53:70:fc:57:e6:b3:ae:8c:22:02:
         62:26:86:7d:14:ff:59:df:ab:b2:6d:da:13:80:cb:5e:08:0d:
         89:d0:a9:c6:53:2b:cc:65:2d:13:4b:4e:1e:83:33:4c:54:ca:
         c7:69:f0:e0:fc:5d:d1:63:9d:77:ca:0f:65:8f:9f:86:0f:18:
         d0:50:ef:f8:b2:78:28:b0:b4:1e:ca:1f:1e:b1:0c:e2:72:98:
         ac:3f:e2:71:82:15:80:60:2b:2f:ca:c3:73:f9:33:fd:b3:d9:
         ff:b8:f5:0f:e2:b8:31:50:5c:c0:18:38:c9:04:f0:09:d7:90:
         10:42:70:ed:6b:fb:6c:d3:f3:39:5a:46:3b:1a:0e:36:61:f9:
         30:25:ea:4b:5a:53:11:7c:6b:45:9a:e5:55:b3:1c:ab:db:1e:
         fd:a8:8e:80:e8:ba:5a:66
-----BEGIN CERTIFICATE-----
MIIFEjCCAvqgAwIBAgIDEAAJMA0GCSqGSIb3DQEBBQUAMBIxEDAOBgNVBAMMB09j
ZWRvQ0EwHhcNMTgwNDEyMDgyMjQ4WhcNNDUwODI3MDgyMjQ4WjA2MRkwFwYDVQQD
DBBDQ0I3RjNCMEJCREJCODE0MRkwFwYDVQQLDBBSTDMzREFENEI0RUMyRTcyMIIC
IjANBgkqhkiG9w0BAQEFAAOCAg8AMIICCgKCAgEAsfxTC6wDDmW1THYmpjDIxJAA
rnn2/AhzbFuY/geuchzBYDiWyCqZ0E/k78qc1/2llRUCU16rk7B85Go9NkZlsTdZ
eFv0Txu5lRo2bh53tnSYqkSNi6zt8xtec3gYMLAY7QZei8fwfQqIpoXCHL7lGktD
o5iMA/+owH7qm1KeZzwInizBE/iMQKqJHjbzx0RX9Fz/wBQvWYKui+iAUL4TYaao
DyLN97Wa046MJMVD2y9LWlRQgrvtmWTwyWT3jcGUoeBqBp7Ae/5Lnkpr/vMiYgmd
gqLGjDTrZF8RrP7fj0he3eOjujUdUAi29aiSUuf9th7Kw1kBix7SR5zBrirpEdvb
bJAmhMaGYHbsELI3kCAr4RhdoCNHnsIBwtV2ChC150xgSyjaaQpaJltkyZjGxW5k
UqcXtVcuFpNJVu7/OvbhYYHUdpxtwILMDzE/3SztiRXdDh6lBA8ZTGQhXiBi+X32
qV6o+l88K9TpAszqbIkndvswuWpaqZAzeVHiSR/2EhFrQ2lw/nmrC1wLfUjDFbKD
MW9Rcfih2+Br7X3vbrXkm4uZ2i8YspM86IxqTyivP5kscxrlQKZ8sT/oJqs9F8yq
AovGFG3EypNKqw5mRTaFyGQn8gbX0hfhbGTvgEsoHf/PC/5/zy7yuCsbfsmjFUxz
rl0DKp5vEmepFs43QjsCAwEAAaNNMEswCQYDVR0TBAIwADAdBgNVHQ4EFgQUZl5u
gWBP1dvPul/UaMZPMp9olNMwHwYDVR0jBBgwFoAUUqqKLA+h0UAnwY/NwREkbHjn
5EMwDQYJKoZIhvcNAQEFBQADggIBAAZltgUmlJM7dJso2q87CyvmAbfXs78abBz3
VsNWdrKm5weUQTVUWTYQLLU++4O41DeW3X7hTLZOe6eMw+FMVj2N9DVLVvmC9Bpz
CAJ+388zRcNq8WVtegICY7eDsBI7B0uLLxp1gpeaGKqTxED/mqOIZO48wBzr6tX0
fBhWLh5aq3Yu04HViJ3daTEfDIfpfmI1U/1Vv9obijP3oS5HgqxZgQQgRzAx2Q0x
GYvhRQ+KDAzhlzNQJ8eFMyAFCOqpv0MchlQfWoeJEYb79H4tLJrQX+YOh2s7EljO
u7I7FglQLRohZqAxPhN9S/IWwf7k8OM4R5sFA/N6A4pUaGOPP1OZylixcLs7cx9X
IHmi5wi278b5FfiqzYnKMI6P/X8xMQuIPCdxfgovJJZhXmI68ucoRz4yR55JoYc7
5jx6QObV7FsjGvL5G6RKcOT4jQq0k6/Im+7kprKyuvep5g57U3D8V+azrowiAmIm
hn0U/1nfq7Jt2hOAy14IDYnQqcZTK8xlLRNLTh6DM0xUysdp8OD8XdFjnXfKD2WP
n4YPGNBQ7/iyeCiwtB7KHx6xDOJymKw/4nGCFYBgKy/Kw3P5M/2z2f+49Q/iuDFQ
XMAYOMkE8AnXkBBCcO1r+2zT8zlaRjsaDjZh+TAl6ktaUxF8a0Wa5VWzHKvbHv2o
joDoulpm
-----END CERTIFICATE-----
