Certificate:
    Data:
        Version: 3 (0x2)
        Serial Number: 1048587 (0x10000b)
    Signature Algorithm: sha1WithRSAEncryption
        Issuer: CN=OcedoCA
        Validity
            Not Before: Apr 12 09:18:09 2018 GMT
            Not After : Aug 27 09:18:09 2045 GMT
        Subject: CN=XN26CA89EAE34504
        Subject Public Key Info:
            Public Key Algorithm: rsaEncryption
                Public-Key: (4096 bit)
                Modulus:
                    00:da:a2:35:43:99:66:4d:31:e0:a8:15:52:3c:0d:
                    57:5d:02:22:c7:d8:6d:dd:39:58:f1:9f:42:21:f7:
                    b5:29:d2:e7:8e:4f:8c:e9:7b:e6:fb:0c:2b:6e:b6:
                    f2:26:e1:4b:13:8b:9d:d1:41:bb:44:69:ed:4b:87:
                    93:05:9e:90:d3:bd:12:0f:a7:69:76:26:15:7a:1c:
                    6c:bb:45:04:aa:0f:9e:ca:cf:1d:d6:43:4a:92:b3:
                    cd:47:15:24:7d:c7:84:9e:9f:e3:87:e6:74:99:4a:
                    04:0a:c0:ec:1d:ba:4c:31:ff:9f:b6:b1:0f:f0:77:
                    5f:23:f8:16:51:65:e6:c9:45:30:4f:ee:1a:60:11:
                    93:99:8d:df:16:1e:74:46:8a:e3:6b:52:88:db:72:
                    68:fa:80:93:90:14:55:df:9e:a3:b9:01:92:d4:2c:
                    e2:c1:92:4c:83:cf:f2:04:07:22:c6:92:f1:78:63:
                    c0:bd:51:40:bc:7d:5b:de:9b:56:e3:04:fe:bf:d0:
                    06:95:a1:1e:2f:3f:82:8b:93:2e:a7:34:b9:91:e0:
                    fe:b7:bc:af:2e:56:9d:83:b3:99:7e:5a:c9:db:11:
                    2d:09:af:43:42:cf:fe:2e:87:35:9b:28:1b:e3:9a:
                    82:89:69:78:c2:ff:69:80:bb:a8:28:5d:42:87:13:
                    8e:82:61:2d:a7:b9:aa:fc:41:b8:6d:8d:ab:a9:a3:
                    a5:9f:a0:d8:41:92:a0:d7:14:85:45:c0:23:23:8f:
                    66:2d:4b:7d:ae:32:14:16:ac:d4:5a:85:a9:15:c5:
                    fd:af:51:b5:d4:8d:d9:e9:3f:e3:9a:6b:27:c1:ec:
                    18:a1:b4:f5:ba:7c:1b:32:7c:0a:e4:6b:03:9e:5d:
                    d9:cf:9a:4c:fd:3c:da:80:f0:19:9a:38:41:81:0d:
                    0b:f6:28:ac:3f:17:ee:3f:b2:c5:61:55:1d:63:b6:
                    82:ec:9e:00:20:85:f7:3b:73:6d:27:18:d2:37:05:
                    9c:92:e7:5b:01:30:04:50:52:8b:04:f3:45:b1:aa:
                    14:39:6f:07:57:ec:9b:de:5f:47:f3:66:f1:ad:df:
                    f0:cf:8c:f9:5b:42:26:38:70:dd:7b:cb:b9:c0:4a:
                    5b:c5:53:17:6c:cc:e8:e7:c4:1c:a4:32:dd:fc:63:
                    8a:1d:10:59:f9:fe:29:f4:52:6e:6c:8d:df:30:3b:
                    f7:b3:7d:54:e6:f7:df:84:9e:53:0c:85:51:fb:fe:
                    5e:17:9f:db:4e:33:62:7b:f7:26:00:c0:56:be:8a:
                    93:59:a4:f8:81:5d:6c:2f:e6:4e:ef:42:39:a4:9a:
                    8e:cc:40:99:1d:ad:47:3e:c3:5b:82:4a:b4:56:e9:
                    3e:8c:35
                Exponent: 65537 (0x10001)
        X509v3 extensions:
            X509v3 Basic Constraints: 
                CA:FALSE
            X509v3 Subject Key Identifier: 
                43:D0:FF:9B:FF:4D:81:9E:B4:20:D4:21:3F:58:EC:94:7A:E2:6F:1A
            X509v3 Authority Key Identifier: 
                keyid:52:AA:8A:2C:0F:A1:D1:40:27:C1:8F:CD:C1:11:24:6C:78:E7:E4:43

    Signature Algorithm: sha1WithRSAEncryption
         b9:29:3f:52:00:16:b5:8e:1a:3c:45:82:da:d9:8d:9f:0c:22:
         cc:61:b2:bb:a8:11:56:16:53:d2:f7:cb:ca:50:dd:65:15:bc:
         26:79:87:d9:37:e5:17:3a:5f:5a:ea:67:f9:e1:bb:66:ef:1b:
         40:89:c7:86:6b:3c:bf:e4:c9:f8:58:1e:0c:a7:20:50:54:44:
         86:ad:0a:3c:23:74:b4:00:a2:bb:b5:88:f1:f4:c5:0d:65:d3:
         46:b9:6f:5c:02:1c:20:68:b1:bc:38:c8:da:bf:aa:a6:fe:0c:
         43:65:6a:1c:95:3a:1b:5b:31:d1:3d:b2:76:5f:ff:47:bc:ea:
         76:6b:b9:4a:59:77:24:53:91:af:dc:22:5c:80:eb:0a:5a:a9:
         f1:dd:75:25:2f:c9:63:e7:0f:8b:1e:a6:4a:e7:0a:37:f6:77:
         fa:77:81:2f:d2:01:72:66:74:4c:9e:33:09:b1:2d:75:e9:54:
         f9:74:33:04:5d:2e:26:e1:c2:5d:b0:3c:cb:65:86:a3:f9:1c:
         a6:5d:a5:9b:38:c1:7e:2a:55:bc:cb:ce:a2:d4:4e:04:aa:4e:
         52:d9:12:9d:af:3d:db:d7:69:1e:5b:fe:7d:fe:e9:35:e0:77:
         af:a4:0d:89:28:3c:9b:c9:a7:15:6c:4e:65:1e:21:76:b5:8a:
         01:43:b9:52:ca:94:66:25:82:2d:b0:4a:f2:f9:4e:11:a4:ef:
         85:d6:79:57:c8:6a:5d:0d:6b:f7:d0:56:76:2f:72:42:a1:60:
         08:34:9d:1f:85:b1:9d:0d:f2:fd:41:a5:f3:b2:0c:62:e5:99:
         b9:b9:07:54:1c:fd:48:23:ad:8a:c4:79:f2:60:f4:2b:fb:9b:
         46:53:e8:3b:7b:86:25:10:f4:b8:4f:f4:e5:3a:6a:1c:b6:d0:
         68:30:3e:d7:ca:ea:3f:a1:e1:78:8b:be:70:2d:67:c9:4a:e2:
         7d:8d:ee:5c:2d:60:7d:b7:09:6a:17:19:8d:b3:fc:51:51:86:
         cf:48:ec:d2:61:af:b7:ea:31:47:4f:59:57:5c:c1:07:74:73:
         86:4d:90:c7:eb:c6:1f:a1:ae:fd:b0:77:b1:25:a5:c4:66:8a:
         1b:af:e6:8e:c6:08:48:4f:d2:57:53:2a:a7:20:62:d5:16:e1:
         c8:4c:75:4c:05:19:d0:f0:ef:5e:e3:f1:2e:7b:53:9e:28:6a:
         65:fb:d3:30:fb:ab:44:ff:39:94:08:b5:45:7f:88:62:83:e3:
         90:50:cb:2b:b2:04:e0:a4:76:50:9c:41:98:03:97:0a:05:87:
         08:8b:93:55:3f:87:a2:98:47:98:8f:13:23:e7:72:a4:82:77:
         e5:d9:24:71:5a:b7:6b:29
-----BEGIN CERTIFICATE-----
MIIE9zCCAt+gAwIBAgIDEAALMA0GCSqGSIb3DQEBBQUAMBIxEDAOBgNVBAMMB09j
ZWRvQ0EwHhcNMTgwNDEyMDkxODA5WhcNNDUwODI3MDkxODA5WjAbMRkwFwYDVQQD
DBBYTjI2Q0E4OUVBRTM0NTA0MIICIjANBgkqhkiG9w0BAQEFAAOCAg8AMIICCgKC
AgEA2qI1Q5lmTTHgqBVSPA1XXQIix9ht3TlY8Z9CIfe1KdLnjk+M6Xvm+wwrbrby
JuFLE4ud0UG7RGntS4eTBZ6Q070SD6dpdiYVehxsu0UEqg+eys8d1kNKkrPNRxUk
fceEnp/jh+Z0mUoECsDsHbpMMf+ftrEP8HdfI/gWUWXmyUUwT+4aYBGTmY3fFh50
Rorja1KI23Jo+oCTkBRV356juQGS1CziwZJMg8/yBAcixpLxeGPAvVFAvH1b3ptW
4wT+v9AGlaEeLz+Ci5MupzS5keD+t7yvLladg7OZflrJ2xEtCa9DQs/+Loc1mygb
45qCiWl4wv9pgLuoKF1ChxOOgmEtp7mq/EG4bY2rqaOln6DYQZKg1xSFRcAjI49m
LUt9rjIUFqzUWoWpFcX9r1G11I3Z6T/jmmsnwewYobT1unwbMnwK5GsDnl3Zz5pM
/TzagPAZmjhBgQ0L9iisPxfuP7LFYVUdY7aC7J4AIIX3O3NtJxjSNwWckudbATAE
UFKLBPNFsaoUOW8HV+yb3l9H82bxrd/wz4z5W0ImOHDde8u5wEpbxVMXbMzo58Qc
pDLd/GOKHRBZ+f4p9FJubI3fMDv3s31U5vffhJ5TDIVR+/5eF5/bTjNie/cmAMBW
voqTWaT4gV1sL+ZO70I5pJqOzECZHa1HPsNbgkq0Vuk+jDUCAwEAAaNNMEswCQYD
VR0TBAIwADAdBgNVHQ4EFgQUQ9D/m/9NgZ60INQhP1jslHribxowHwYDVR0jBBgw
FoAUUqqKLA+h0UAnwY/NwREkbHjn5EMwDQYJKoZIhvcNAQEFBQADggIBALkpP1IA
FrWOGjxFgtrZjZ8MIsxhsruoEVYWU9L3y8pQ3WUVvCZ5h9k35Rc6X1rqZ/nhu2bv
G0CJx4ZrPL/kyfhYHgynIFBURIatCjwjdLQAoru1iPH0xQ1l00a5b1wCHCBosbw4
yNq/qqb+DENlahyVOhtbMdE9snZf/0e86nZruUpZdyRTka/cIlyA6wpaqfHddSUv
yWPnD4sepkrnCjf2d/p3gS/SAXJmdEyeMwmxLXXpVPl0MwRdLibhwl2wPMtlhqP5
HKZdpZs4wX4qVbzLzqLUTgSqTlLZEp2vPdvXaR5b/n3+6TXgd6+kDYkoPJvJpxVs
TmUeIXa1igFDuVLKlGYlgi2wSvL5ThGk74XWeVfIal0Na/fQVnYvckKhYAg0nR+F
sZ0N8v1BpfOyDGLlmbm5B1Qc/UgjrYrEefJg9Cv7m0ZT6Dt7hiUQ9LhP9OU6ahy2
0GgwPtfK6j+h4XiLvnAtZ8lK4n2N7lwtYH23CWoXGY2z/FFRhs9I7NJhr7fqMUdP
WVdcwQd0c4ZNkMfrxh+hrv2wd7ElpcRmihuv5o7GCEhP0ldTKqcgYtUW4chMdUwF
GdDw717j8S57U54oamX70zD7q0T/OZQItUV/iGKD45BQyyuyBOCkdlCcQZgDlwoF
hwiLk1U/h6KYR5iPEyPncqSCd+XZJHFat2sp
-----END CERTIFICATE-----
