Certificate:
    Data:
        Version: 3 (0x2)
        Serial Number: 1048578 (0x100002)
    Signature Algorithm: sha1WithRSAEncryption
        Issuer: CN=OcedoCA
        Validity
            Not Before: Mar  9 06:31:56 2018 GMT
            Not After : Jul 24 06:31:56 2045 GMT
        Subject: CN=cc-stats.ocedo.cc
        Subject Public Key Info:
            Public Key Algorithm: rsaEncryption
                Public-Key: (4096 bit)
                Modulus:
                    00:cb:64:24:1b:93:f8:ce:fc:1a:03:af:c4:7b:e1:
                    c7:8c:bd:8c:b3:91:40:d4:b6:1b:59:6a:9b:92:5b:
                    3e:0d:81:c9:b5:bd:e6:60:f0:e1:d8:62:3e:a4:23:
                    5f:8b:37:b6:65:86:47:83:c0:3e:48:a8:7f:a6:e3:
                    96:73:82:c5:6e:b5:e1:17:97:88:79:a1:af:07:8f:
                    3a:2a:fb:aa:f0:af:f3:b5:f3:1b:89:19:eb:cd:44:
                    4d:21:f4:8b:91:16:8f:0e:6b:25:c6:2f:29:15:50:
                    1d:04:eb:e8:19:50:98:05:60:ea:0d:88:12:3b:99:
                    77:42:22:cc:61:fa:7d:1b:1f:1b:13:3a:38:0c:24:
                    ec:f1:fd:27:84:2a:02:20:51:3f:e4:ce:56:2c:30:
                    29:1b:bc:aa:18:ea:ec:2d:d9:ac:ff:f7:1a:d2:0e:
                    24:1d:db:25:dd:37:a0:fc:0c:dc:ed:7c:8b:90:08:
                    58:61:ec:4e:81:b6:a8:3f:c5:d9:22:98:8b:f1:49:
                    d3:7b:29:a5:a7:57:d6:ca:b7:47:82:44:05:21:54:
                    9c:9e:15:32:2d:8d:d4:81:ec:27:50:15:10:10:ee:
                    7e:f1:5f:04:03:80:b8:9b:1f:93:fd:7b:0d:c7:77:
                    1e:d2:d4:f7:33:38:23:f7:b2:b7:b6:71:0c:ef:9c:
                    19:02:6f:80:7d:31:f0:8d:61:73:00:40:59:33:78:
                    3a:15:9e:87:e3:55:e8:64:bf:0e:47:83:d3:f5:f2:
                    a1:12:92:fc:cf:23:f1:1a:da:9e:37:07:5d:21:6f:
                    6a:14:0d:12:70:2c:3c:a7:b5:32:c6:50:ac:ad:10:
                    10:ee:fa:22:13:bf:62:fa:cc:c9:90:1d:66:ef:88:
                    1b:56:f9:a1:5e:72:15:0f:33:33:a3:29:f3:c1:19:
                    97:b3:e0:bb:7f:1e:a6:be:93:cd:fc:b9:ee:90:66:
                    47:3c:f2:e4:dc:13:84:e9:60:f1:c7:b3:19:d8:17:
                    83:9d:93:51:a4:ef:63:7d:0d:dc:ab:a4:7e:41:18:
                    17:41:c4:ca:13:f7:99:83:0b:c9:22:20:74:59:2a:
                    06:f0:13:20:dd:78:82:0d:aa:ad:ea:c3:e5:16:68:
                    c8:c0:79:38:05:f0:e9:da:1a:1e:bd:cf:dc:62:63:
                    ae:d3:94:d8:ac:e8:8e:54:62:e5:f9:8c:18:bf:80:
                    29:dc:1c:9b:80:40:f5:eb:3d:45:38:14:62:03:c0:
                    d2:08:80:08:72:41:83:5c:9e:c7:0f:d7:4b:81:42:
                    6f:fe:91:56:0f:48:27:10:df:a5:04:47:dc:af:59:
                    ff:87:cb:d8:be:46:43:16:82:6f:26:da:1f:c1:ef:
                    f5:8e:37
                Exponent: 65537 (0x10001)
        X509v3 extensions:
            X509v3 Basic Constraints: 
                CA:FALSE
            X509v3 Subject Key Identifier: 
                5A:4A:99:83:1F:2C:48:BD:67:2E:78:FD:77:78:38:5B:98:F6:75:68
            X509v3 Authority Key Identifier: 
                keyid:52:AA:8A:2C:0F:A1:D1:40:27:C1:8F:CD:C1:11:24:6C:78:E7:E4:43

    Signature Algorithm: sha1WithRSAEncryption
         8f:69:0b:c6:89:03:e3:ad:3c:dc:71:54:89:9d:ad:fc:be:a2:
         b6:8d:87:30:49:a3:fc:29:53:f9:eb:0c:5f:93:e2:3a:a5:1f:
         07:ab:7c:01:53:d0:c6:95:a4:a3:65:1d:55:58:4b:a8:ba:3e:
         c1:8a:27:54:85:4f:2d:d0:3a:29:f8:66:6c:3a:52:f7:5e:72:
         6e:fe:d7:ac:6e:06:fb:4b:99:05:ea:60:04:d1:b4:2d:37:52:
         29:65:13:09:97:27:77:b4:70:b2:a2:32:13:76:fa:55:97:c7:
         45:90:8d:9d:fa:dd:e6:5b:2b:dd:fd:5c:34:9b:89:d6:44:e1:
         de:e8:89:69:c6:35:fb:e8:72:c5:e3:a6:8b:46:b8:24:fb:ee:
         4f:3a:20:2b:1b:9b:f7:a9:12:e2:e9:df:19:f6:f7:c8:31:18:
         5c:9b:68:7f:4f:d0:a5:1d:e7:62:1c:26:ac:9f:4d:f4:2a:22:
         02:5f:3f:c8:e4:c4:41:07:9a:36:68:d9:5c:c2:6c:e9:b7:fc:
         3b:2e:6a:7c:63:d9:a2:f5:c8:11:7e:74:1b:04:60:66:b6:a2:
         f5:2d:01:8c:06:ff:d4:80:2e:fa:2c:b3:f8:72:98:cd:c5:31:
         d1:ed:8b:84:fa:14:4d:df:c5:db:d3:86:6d:4f:83:a6:a1:d1:
         de:0c:92:e6:b6:1f:58:bd:b6:1c:df:4e:5d:59:b5:b3:1c:70:
         29:67:b1:51:80:00:42:ce:45:e1:f7:6a:60:1e:60:06:25:24:
         3c:62:4c:b5:f8:b5:e7:8d:0e:54:8a:1e:ed:75:01:94:65:fc:
         9f:61:af:c8:43:22:3f:ee:4b:ea:1f:76:d6:61:3b:44:51:60:
         25:57:2e:1a:9d:73:0a:6c:dd:70:12:ca:12:e4:3f:70:b1:34:
         99:75:79:c9:61:07:d6:9e:05:7f:ba:a5:6c:dd:ae:85:d5:39:
         73:5f:d0:35:31:24:c7:f6:e5:22:dc:06:a4:96:91:e0:45:4c:
         fe:ac:e4:60:7a:99:a3:0c:39:32:6c:07:44:34:7a:ae:83:15:
         3f:99:98:2c:75:8f:9a:31:d9:e2:24:84:30:0d:6d:43:e1:a4:
         e2:d1:d4:09:cb:08:a8:06:e1:69:10:04:cf:4c:99:ce:59:c5:
         c2:e7:14:93:2e:54:1b:88:72:dd:03:e5:7f:4b:8d:29:75:43:
         93:01:c8:34:a5:a4:fd:bc:06:78:cd:bb:5a:86:67:af:1d:e8:
         3e:39:75:47:7f:62:6d:bd:bf:96:fe:7d:a1:85:9f:dd:79:4b:
         e3:a4:4a:ee:6a:b5:ab:8b:aa:c8:40:35:45:95:b0:65:f7:7f:
         c2:77:93:36:15:c9:26:b3
-----BEGIN CERTIFICATE-----
MIIE+DCCAuCgAwIBAgIDEAACMA0GCSqGSIb3DQEBBQUAMBIxEDAOBgNVBAMMB09j
ZWRvQ0EwHhcNMTgwMzA5MDYzMTU2WhcNNDUwNzI0MDYzMTU2WjAcMRowGAYDVQQD
DBFjYy1zdGF0cy5vY2Vkby5jYzCCAiIwDQYJKoZIhvcNAQEBBQADggIPADCCAgoC
ggIBAMtkJBuT+M78GgOvxHvhx4y9jLORQNS2G1lqm5JbPg2BybW95mDw4dhiPqQj
X4s3tmWGR4PAPkiof6bjlnOCxW614ReXiHmhrwePOir7qvCv87XzG4kZ681ETSH0
i5EWjw5rJcYvKRVQHQTr6BlQmAVg6g2IEjuZd0IizGH6fRsfGxM6OAwk7PH9J4Qq
AiBRP+TOViwwKRu8qhjq7C3ZrP/3GtIOJB3bJd03oPwM3O18i5AIWGHsToG2qD/F
2SKYi/FJ03sppadX1sq3R4JEBSFUnJ4VMi2N1IHsJ1AVEBDufvFfBAOAuJsfk/17
Dcd3HtLU9zM4I/eyt7ZxDO+cGQJvgH0x8I1hcwBAWTN4OhWeh+NV6GS/DkeD0/Xy
oRKS/M8j8RranjcHXSFvahQNEnAsPKe1MsZQrK0QEO76IhO/YvrMyZAdZu+IG1b5
oV5yFQ8zM6Mp88EZl7Pgu38epr6Tzfy57pBmRzzy5NwThOlg8cezGdgXg52TUaTv
Y30N3KukfkEYF0HEyhP3mYMLySIgdFkqBvATIN14gg2qrerD5RZoyMB5OAXw6doa
Hr3P3GJjrtOU2KzojlRi5fmMGL+AKdwcm4BA9es9RTgUYgPA0giACHJBg1yexw/X
S4FCb/6RVg9IJxDfpQRH3K9Z/4fL2L5GQxaCbybaH8Hv9Y43AgMBAAGjTTBLMAkG
A1UdEwQCMAAwHQYDVR0OBBYEFFpKmYMfLEi9Zy54/Xd4OFuY9nVoMB8GA1UdIwQY
MBaAFFKqiiwPodFAJ8GPzcERJGx45+RDMA0GCSqGSIb3DQEBBQUAA4ICAQCPaQvG
iQPjrTzccVSJna38vqK2jYcwSaP8KVP56wxfk+I6pR8Hq3wBU9DGlaSjZR1VWEuo
uj7BiidUhU8t0Dop+GZsOlL3XnJu/tesbgb7S5kF6mAE0bQtN1IpZRMJlyd3tHCy
ojITdvpVl8dFkI2d+t3mWyvd/Vw0m4nWROHe6IlpxjX76HLF46aLRrgk++5POiAr
G5v3qRLi6d8Z9vfIMRhcm2h/T9ClHediHCasn030KiICXz/I5MRBB5o2aNlcwmzp
t/w7Lmp8Y9mi9cgRfnQbBGBmtqL1LQGMBv/UgC76LLP4cpjNxTHR7YuE+hRN38Xb
04ZtT4OmodHeDJLmth9YvbYc305dWbWzHHApZ7FRgABCzkXh92pgHmAGJSQ8Yky1
+LXnjQ5Uih7tdQGUZfyfYa/IQyI/7kvqH3bWYTtEUWAlVy4anXMKbN1wEsoS5D9w
sTSZdXnJYQfWngV/uqVs3a6F1TlzX9A1MSTH9uUi3AaklpHgRUz+rORgepmjDDky
bAdENHqugxU/mZgsdY+aMdniJIQwDW1D4aTi0dQJywioBuFpEATPTJnOWcXC5xST
LlQbiHLdA+V/S40pdUOTAcg0paT9vAZ4zbtahmevHeg+OXVHf2Jtvb+W/n2hhZ/d
eUvjpEruarWri6rIQDVFlbBl93/Cd5M2Fckmsw==
-----END CERTIFICATE-----
