Certificate:
    Data:
        Version: 3 (0x2)
        Serial Number: 1048591 (0x10000f)
    Signature Algorithm: sha1WithRSAEncryption
        Issuer: CN=OcedoCA
        Validity
            Not Before: Apr 12 10:50:14 2018 GMT
            Not After : Aug 27 10:50:14 2045 GMT
        Subject: CN=XN75BB0526D02F48
        Subject Public Key Info:
            Public Key Algorithm: rsaEncryption
                Public-Key: (4096 bit)
                Modulus:
                    00:cb:86:9e:fb:6f:12:58:4b:b6:13:28:7f:4a:b8:
                    cd:cb:1d:d3:33:cc:f5:7c:0e:49:43:e5:cd:ee:4d:
                    92:31:a7:75:87:5b:a2:c6:5e:11:c4:bc:51:73:b1:
                    95:c7:d9:9b:cd:bd:d2:c9:85:9f:c2:be:c0:0a:21:
                    c7:69:47:cb:2b:1e:64:a6:27:c3:fc:b0:03:ca:93:
                    f1:a2:4f:e5:b8:48:4b:4e:cd:86:59:d8:51:8e:38:
                    c3:2f:ac:e7:b9:87:41:33:26:da:5e:b3:fc:f7:a9:
                    ff:ed:63:d0:16:d0:8a:ea:59:ba:67:c6:4f:ee:3b:
                    52:c0:69:e4:01:bc:72:68:74:a0:3b:dd:b0:41:8f:
                    cc:d4:80:cc:9c:6d:ef:f1:7e:27:64:ed:6c:14:36:
                    f3:9b:b6:08:66:e9:7a:ad:34:ee:56:eb:56:a5:d0:
                    e3:7c:91:12:72:97:8b:3a:56:69:7d:d9:91:fd:f8:
                    e7:a8:14:eb:46:8a:ae:4f:ae:84:38:f1:71:5a:83:
                    82:69:b6:19:b1:e7:c4:d8:f4:4a:7d:b3:25:88:ea:
                    94:62:62:d6:b9:59:1f:f6:d5:d1:04:99:ea:dd:79:
                    69:3e:27:a0:9b:25:7a:c2:f7:81:5c:fc:99:5c:28:
                    67:c5:5f:6e:bb:87:b3:54:f7:7a:d4:f9:8f:c1:5e:
                    5c:47:94:8d:93:f4:38:ca:86:21:c6:4a:ab:07:67:
                    b5:c7:de:55:87:2f:57:8d:04:b0:4f:8a:63:ef:3e:
                    ce:5d:17:7d:cd:24:69:36:a7:58:87:e7:a1:78:5f:
                    c5:ca:c2:5d:d1:3e:68:e1:77:2b:29:6d:f8:ed:10:
                    3a:9e:19:25:51:fa:46:7f:4f:df:ab:0f:7b:8c:55:
                    6a:c0:a5:60:fd:c7:99:52:31:af:82:27:a9:15:a1:
                    7d:84:34:ed:25:75:06:2d:1a:43:1f:04:b2:3d:b6:
                    a2:e1:90:61:fa:8a:92:ef:77:5a:37:78:5c:17:29:
                    e9:d7:b4:b9:a7:4d:54:0b:3e:89:81:37:8c:9a:9f:
                    c9:37:62:2f:1d:38:6a:11:3a:b1:4a:0c:c1:0a:af:
                    99:c0:3c:ee:6f:b1:19:9f:b4:77:7b:cf:24:00:79:
                    6a:8d:6a:98:4a:26:80:cc:e2:28:1a:4a:c9:f0:24:
                    64:62:b8:15:b6:13:d0:c9:92:91:86:ff:e3:7c:b8:
                    8b:ed:e0:7a:00:b6:63:43:4d:4c:15:eb:d1:77:8a:
                    04:26:bd:b9:6b:d9:14:48:0f:01:94:28:c7:97:bd:
                    b4:e0:d2:e2:5b:b4:da:6d:a2:41:c2:d5:bf:b5:bf:
                    22:d1:1a:6d:03:41:a6:1c:ae:d8:75:e7:2b:e0:aa:
                    e1:48:d3
                Exponent: 65537 (0x10001)
        X509v3 extensions:
            X509v3 Basic Constraints: 
                CA:FALSE
            X509v3 Subject Key Identifier: 
                8C:40:B4:34:60:A3:57:77:A1:03:29:22:C9:30:EC:5A:09:3F:8E:BF
            X509v3 Authority Key Identifier: 
                keyid:52:AA:8A:2C:0F:A1:D1:40:27:C1:8F:CD:C1:11:24:6C:78:E7:E4:43

    Signature Algorithm: sha1WithRSAEncryption
         24:49:87:5a:4d:7a:31:3b:e1:8f:4a:b7:f5:24:39:f8:e2:bd:
         0f:9d:90:b3:dc:9a:46:5d:b3:b0:53:8c:78:4d:8a:49:cb:58:
         63:a6:0f:eb:05:14:bb:18:ea:02:ad:67:38:bc:f8:8d:ce:0e:
         d4:18:7a:93:4c:91:af:8c:c1:fd:28:aa:f5:91:e3:bb:ad:3b:
         3b:ae:5c:2c:5f:11:55:29:c9:52:51:ff:52:c9:28:95:f7:bf:
         65:66:c8:49:8d:e5:b3:4b:c9:6d:67:e8:f2:0b:ce:e3:1e:59:
         2e:c3:3e:6d:52:fe:40:78:47:db:9f:c3:ca:4e:54:18:c6:83:
         7c:66:91:14:b9:cb:65:93:80:2a:87:0b:51:6b:b4:fd:50:be:
         b3:5c:ec:3b:2f:8d:c4:52:13:1f:8b:f5:6a:dc:ab:1b:c8:36:
         a7:5b:97:0e:93:22:91:fa:c5:92:10:b8:83:5c:68:17:c7:ef:
         a5:d5:4d:98:28:13:93:fb:bf:e5:59:10:76:b4:cf:e9:2f:95:
         d5:9f:3e:93:f3:0f:27:b9:9e:66:b0:57:2a:f9:75:49:51:e6:
         cd:33:79:48:09:77:14:6f:df:d2:fa:a1:ae:7f:df:ce:2e:54:
         01:e0:c7:76:8c:58:3e:e0:36:44:14:36:51:c7:94:17:4c:af:
         05:95:77:29:93:3d:df:8a:a6:1c:60:0b:e9:ff:66:4b:d2:6f:
         7d:95:df:55:53:de:e5:bb:e5:3d:cc:21:8e:53:be:34:e8:6a:
         e7:a9:1e:72:b7:e2:b5:ac:a7:ed:04:73:8d:fd:cb:ff:16:2e:
         1b:c1:b5:19:68:77:ef:85:e3:58:5f:83:a6:01:9a:8e:5e:b0:
         65:fd:59:7a:6d:2d:dd:78:46:3f:81:36:78:08:c9:e2:85:bb:
         05:73:80:15:40:09:f5:2b:08:e0:51:a5:d2:93:e0:0c:9d:f9:
         80:0c:13:48:cf:20:46:e5:69:37:ba:3f:04:a2:7f:1b:2a:98:
         e3:50:c7:70:32:1a:7b:20:9a:dd:f9:41:68:e9:35:8a:8b:31:
         da:e0:54:05:39:66:50:34:4c:4b:83:20:a2:35:64:bb:4f:95:
         f0:bf:a5:b6:33:96:ab:08:9a:ff:f4:eb:15:e6:f5:0a:e7:3f:
         a4:32:59:c7:ad:0f:69:b0:7c:a7:ba:11:c6:cd:8c:a9:2b:f1:
         7e:71:f4:a4:56:03:c2:9b:72:ba:cf:55:55:fd:49:ed:56:70:
         50:23:c0:90:01:80:5f:a0:0b:56:b9:8b:44:ed:b7:3c:14:77:
         ec:cc:25:41:96:06:ad:7c:21:b6:a6:f0:b8:75:1a:ef:fb:27:
         e1:eb:22:1a:b5:92:74:b6
-----BEGIN CERTIFICATE-----
MIIE9zCCAt+gAwIBAgIDEAAPMA0GCSqGSIb3DQEBBQUAMBIxEDAOBgNVBAMMB09j
ZWRvQ0EwHhcNMTgwNDEyMTA1MDE0WhcNNDUwODI3MTA1MDE0WjAbMRkwFwYDVQQD
DBBYTjc1QkIwNTI2RDAyRjQ4MIICIjANBgkqhkiG9w0BAQEFAAOCAg8AMIICCgKC
AgEAy4ae+28SWEu2Eyh/SrjNyx3TM8z1fA5JQ+XN7k2SMad1h1uixl4RxLxRc7GV
x9mbzb3SyYWfwr7ACiHHaUfLKx5kpifD/LADypPxok/luEhLTs2GWdhRjjjDL6zn
uYdBMybaXrP896n/7WPQFtCK6lm6Z8ZP7jtSwGnkAbxyaHSgO92wQY/M1IDMnG3v
8X4nZO1sFDbzm7YIZul6rTTuVutWpdDjfJEScpeLOlZpfdmR/fjnqBTrRoquT66E
OPFxWoOCabYZsefE2PRKfbMliOqUYmLWuVkf9tXRBJnq3XlpPiegmyV6wveBXPyZ
XChnxV9uu4ezVPd61PmPwV5cR5SNk/Q4yoYhxkqrB2e1x95Vhy9XjQSwT4pj7z7O
XRd9zSRpNqdYh+eheF/FysJd0T5o4XcrKW347RA6nhklUfpGf0/fqw97jFVqwKVg
/ceZUjGvgiepFaF9hDTtJXUGLRpDHwSyPbai4ZBh+oqS73daN3hcFynp17S5p01U
Cz6JgTeMmp/JN2IvHThqETqxSgzBCq+ZwDzub7EZn7R3e88kAHlqjWqYSiaAzOIo
GkrJ8CRkYrgVthPQyZKRhv/jfLiL7eB6ALZjQ01MFevRd4oEJr25a9kUSA8BlCjH
l7204NLiW7TabaJBwtW/tb8i0RptA0GmHK7Ydecr4KrhSNMCAwEAAaNNMEswCQYD
VR0TBAIwADAdBgNVHQ4EFgQUjEC0NGCjV3ehAykiyTDsWgk/jr8wHwYDVR0jBBgw
FoAUUqqKLA+h0UAnwY/NwREkbHjn5EMwDQYJKoZIhvcNAQEFBQADggIBACRJh1pN
ejE74Y9Kt/UkOfjivQ+dkLPcmkZds7BTjHhNiknLWGOmD+sFFLsY6gKtZzi8+I3O
DtQYepNMka+Mwf0oqvWR47utOzuuXCxfEVUpyVJR/1LJKJX3v2VmyEmN5bNLyW1n
6PILzuMeWS7DPm1S/kB4R9ufw8pOVBjGg3xmkRS5y2WTgCqHC1FrtP1QvrNc7Dsv
jcRSEx+L9WrcqxvINqdblw6TIpH6xZIQuINcaBfH76XVTZgoE5P7v+VZEHa0z+kv
ldWfPpPzDye5nmawVyr5dUlR5s0zeUgJdxRv39L6oa5/384uVAHgx3aMWD7gNkQU
NlHHlBdMrwWVdymTPd+KphxgC+n/ZkvSb32V31VT3uW75T3MIY5TvjToauepHnK3
4rWsp+0Ec439y/8WLhvBtRlod++F41hfg6YBmo5esGX9WXptLd14Rj+BNngIyeKF
uwVzgBVACfUrCOBRpdKT4Ayd+YAME0jPIEblaTe6PwSifxsqmONQx3AyGnsgmt35
QWjpNYqLMdrgVAU5ZlA0TEuDIKI1ZLtPlfC/pbYzlqsImv/06xXm9QrnP6QyWcet
D2mwfKe6EcbNjKkr8X5x9KRWA8KbcrrPVVX9Se1WcFAjwJABgF+gC1a5i0TttzwU
d+zMJUGWBq18Ibam8Lh1Gu/7J+HrIhq1knS2
-----END CERTIFICATE-----
