Certificate:
    Data:
        Version: 3 (0x2)
        Serial Number: 1048576 (0x100000)
    Signature Algorithm: sha1WithRSAEncryption
        Issuer: CN=OcedoCA
        Validity
            Not Before: Mar  9 06:31:53 2018 GMT
            Not After : Jul 24 06:31:53 2045 GMT
        Subject: CN=A_Admin
        Subject Public Key Info:
            Public Key Algorithm: rsaEncryption
                Public-Key: (4096 bit)
                Modulus:
                    00:ce:bd:b9:3f:eb:8b:b2:4d:14:0e:fa:a7:05:20:
                    b3:4d:96:7e:48:75:f1:40:f2:b1:d5:65:9e:6d:c8:
                    29:cb:ed:a5:1d:f2:b1:b5:bb:38:0a:d3:5b:1a:c3:
                    d3:25:eb:36:21:5c:38:e0:0b:bf:9e:f3:30:6e:f0:
                    61:04:d6:46:b4:b6:e2:cc:68:51:10:29:00:14:75:
                    44:8c:48:f9:60:cf:c9:0e:ca:4d:45:ce:9a:91:c8:
                    da:de:09:25:0d:bf:cf:14:51:01:a5:bd:8d:59:41:
                    4a:b7:8c:bd:74:97:e5:3f:c3:19:9b:b0:45:d3:78:
                    85:72:2e:a3:1e:c8:19:c1:03:e6:10:93:35:7f:87:
                    25:18:65:ff:e1:dd:2f:48:d8:4c:08:c2:af:a5:80:
                    22:73:79:5b:1e:5b:34:7e:22:f2:69:7f:5f:53:a4:
                    92:ad:dd:de:88:42:5e:e1:1b:81:d9:b6:4e:7e:dd:
                    71:4b:8b:3f:f5:f2:b4:f1:de:f7:f0:a4:ce:5d:42:
                    94:49:96:c8:6b:0b:a1:d9:0f:66:79:3e:91:25:1b:
                    75:4c:c6:25:35:f8:b8:47:6d:04:41:68:03:91:0b:
                    ad:e9:ba:b3:08:fd:10:64:0a:1f:60:df:7c:18:0b:
                    1a:70:91:f4:1d:b5:ac:f2:3f:1b:7b:d3:06:98:90:
                    c0:23:cc:af:aa:d7:c0:85:0a:bd:84:d0:74:30:6e:
                    0b:ef:4f:f4:f5:8c:bf:82:a1:1d:a6:0d:35:8f:92:
                    ca:cf:9a:27:f2:24:5d:b1:28:25:f5:29:0b:3b:a1:
                    7e:f8:42:7a:18:3f:c7:e5:c6:17:6f:d9:06:86:15:
                    a9:c5:2d:d0:21:6c:68:fe:7a:b2:8c:c1:16:2c:fa:
                    f4:c3:00:bc:28:be:3d:47:e7:57:eb:33:89:fd:91:
                    d1:a0:da:ed:95:5d:c2:63:66:e9:9c:4b:bd:68:f9:
                    0d:0e:4e:2c:3b:90:cd:94:1f:73:41:7a:24:44:c0:
                    c3:3e:47:1f:73:02:24:8f:6b:74:7b:e4:92:d8:5b:
                    d6:ac:c8:f8:65:bd:ee:ae:61:84:05:a7:9b:39:4e:
                    bf:7c:5f:9e:fc:f7:2b:a4:b1:82:c7:44:af:5f:bb:
                    cf:d0:96:65:04:a2:55:d0:08:b0:3b:0e:69:6c:48:
                    5d:67:d4:45:00:41:66:35:88:90:ff:54:9e:c8:7d:
                    e9:11:a6:d7:76:81:5e:98:e1:37:8f:93:47:1e:4b:
                    12:61:3f:5f:51:24:97:2d:3a:71:6f:28:ae:de:a4:
                    9d:63:d1:85:4d:64:67:c9:db:ee:4b:93:8e:32:6e:
                    3e:76:49:63:5f:1c:ab:f5:ec:b1:43:df:5d:66:77:
                    88:86:01
                Exponent: 65537 (0x10001)
        X509v3 extensions:
            X509v3 Basic Constraints: 
                CA:FALSE
            X509v3 Subject Key Identifier: 
                CF:67:ED:30:91:96:5C:EF:FA:1A:D4:B6:69:F5:9E:EB:97:69:84:EE
            X509v3 Authority Key Identifier: 
                keyid:52:AA:8A:2C:0F:A1:D1:40:27:C1:8F:CD:C1:11:24:6C:78:E7:E4:43

    Signature Algorithm: sha1WithRSAEncryption
         33:51:d1:5a:00:4e:59:d1:a8:10:2d:9e:79:e2:8b:03:06:4b:
         46:5b:02:97:57:f2:f0:e5:71:e4:5f:fb:dc:f2:87:f0:66:9a:
         33:ad:8a:fb:6d:39:c7:89:f0:6b:22:d2:88:a2:21:39:58:97:
         1b:23:56:5b:f3:77:0e:07:0d:fd:40:ba:dd:1d:0b:85:58:c5:
         e9:c0:8e:e8:3b:17:13:fd:b6:73:c8:cd:d0:e7:86:d5:58:36:
         1c:da:26:5e:32:f6:0a:3f:1d:f2:c8:65:8e:ff:63:8e:1d:80:
         eb:53:23:4b:c7:e7:07:41:26:f6:eb:54:ee:bb:18:38:0d:f0:
         48:46:a2:85:95:2f:fe:56:a1:6b:8c:21:65:92:8a:d8:f7:9a:
         5b:e7:1a:bc:9d:ef:a6:c5:7b:cc:5d:ad:e5:63:28:96:b2:32:
         e6:ae:07:36:28:e9:dc:15:71:b0:53:90:36:0b:24:39:b2:b4:
         fb:14:f9:8e:b8:29:47:ba:ff:f7:ce:9c:15:d1:73:3c:62:36:
         9a:98:52:7c:d2:a2:b1:80:58:30:ee:be:a4:26:9e:a6:5e:69:
         84:b9:77:a5:bb:d9:83:a1:8b:e5:c1:dd:02:10:83:49:fb:8f:
         36:92:96:8f:d9:e1:77:8c:d6:d1:57:55:b3:36:6e:66:0e:03:
         f2:b8:92:43:d0:0a:bc:e1:f8:3a:92:d2:c1:ef:dc:a1:bc:e9:
         8a:36:47:8f:dc:99:a8:f3:c2:1c:88:26:26:c0:a0:9e:3b:3c:
         17:67:74:1b:62:25:b3:91:53:0a:5a:bb:5f:73:69:8f:f2:9b:
         1b:89:19:8c:46:65:ea:8c:32:21:24:3d:14:3f:c6:e2:00:6f:
         ee:80:92:73:57:dc:d6:32:e4:be:44:e5:62:65:f3:5a:46:37:
         6f:14:ec:7a:b5:2b:07:2e:49:71:92:74:04:e2:e3:8e:b7:d8:
         7b:36:8e:f7:fa:16:02:3e:97:e2:0d:e1:a8:6f:1e:b4:8c:8b:
         be:34:a1:aa:92:fb:e4:47:31:a4:d3:7c:38:9a:5a:17:82:bc:
         e7:60:8c:e7:d3:20:0f:72:70:52:4f:00:81:e5:6d:e4:1c:43:
         d8:e5:74:e5:6f:41:90:fd:2d:df:87:22:cf:e0:93:b7:38:c4:
         96:b8:ac:b1:64:97:bb:5a:ee:06:8e:85:93:3a:7e:6d:df:23:
         bc:ac:0f:7b:83:c7:06:b4:7b:4f:b0:0e:1a:73:a5:dc:71:f2:
         88:c8:21:75:2c:0c:b5:e7:9b:c4:09:58:1b:ba:e9:7a:79:8c:
         22:07:f9:f6:40:c0:db:df:b3:db:2d:59:11:11:f2:36:d3:89:
         d8:83:af:9e:a6:7f:ae:5a
-----BEGIN CERTIFICATE-----
MIIE7jCCAtagAwIBAgIDEAAAMA0GCSqGSIb3DQEBBQUAMBIxEDAOBgNVBAMMB09j
ZWRvQ0EwHhcNMTgwMzA5MDYzMTUzWhcNNDUwNzI0MDYzMTUzWjASMRAwDgYDVQQD
DAdBX0FkbWluMIICIjANBgkqhkiG9w0BAQEFAAOCAg8AMIICCgKCAgEAzr25P+uL
sk0UDvqnBSCzTZZ+SHXxQPKx1WWebcgpy+2lHfKxtbs4CtNbGsPTJes2IVw44Au/
nvMwbvBhBNZGtLbizGhRECkAFHVEjEj5YM/JDspNRc6akcja3gklDb/PFFEBpb2N
WUFKt4y9dJflP8MZm7BF03iFci6jHsgZwQPmEJM1f4clGGX/4d0vSNhMCMKvpYAi
c3lbHls0fiLyaX9fU6SSrd3eiEJe4RuB2bZOft1xS4s/9fK08d738KTOXUKUSZbI
awuh2Q9meT6RJRt1TMYlNfi4R20EQWgDkQut6bqzCP0QZAofYN98GAsacJH0HbWs
8j8be9MGmJDAI8yvqtfAhQq9hNB0MG4L70/09Yy/gqEdpg01j5LKz5on8iRdsSgl
9SkLO6F++EJ6GD/H5cYXb9kGhhWpxS3QIWxo/nqyjMEWLPr0wwC8KL49R+dX6zOJ
/ZHRoNrtlV3CY2bpnEu9aPkNDk4sO5DNlB9zQXokRMDDPkcfcwIkj2t0e+SS2FvW
rMj4Zb3urmGEBaebOU6/fF+e/PcrpLGCx0SvX7vP0JZlBKJV0AiwOw5pbEhdZ9RF
AEFmNYiQ/1SeyH3pEabXdoFemOE3j5NHHksSYT9fUSSXLTpxbyiu3qSdY9GFTWRn
ydvuS5OOMm4+dkljXxyr9eyxQ99dZneIhgECAwEAAaNNMEswCQYDVR0TBAIwADAd
BgNVHQ4EFgQUz2ftMJGWXO/6GtS2afWe65dphO4wHwYDVR0jBBgwFoAUUqqKLA+h
0UAnwY/NwREkbHjn5EMwDQYJKoZIhvcNAQEFBQADggIBADNR0VoATlnRqBAtnnni
iwMGS0ZbApdX8vDlceRf+9zyh/BmmjOtivttOceJ8Gsi0oiiITlYlxsjVlvzdw4H
Df1Aut0dC4VYxenAjug7FxP9tnPIzdDnhtVYNhzaJl4y9go/HfLIZY7/Y44dgOtT
I0vH5wdBJvbrVO67GDgN8EhGooWVL/5WoWuMIWWSitj3mlvnGryd76bFe8xdreVj
KJayMuauBzYo6dwVcbBTkDYLJDmytPsU+Y64KUe6//fOnBXRczxiNpqYUnzSorGA
WDDuvqQmnqZeaYS5d6W72YOhi+XB3QIQg0n7jzaSlo/Z4XeM1tFXVbM2bmYOA/K4
kkPQCrzh+DqS0sHv3KG86Yo2R4/cmajzwhyIJibAoJ47PBdndBtiJbORUwpau19z
aY/ymxuJGYxGZeqMMiEkPRQ/xuIAb+6AknNX3NYy5L5E5WJl81pGN28U7Hq1Kwcu
SXGSdATi44632Hs2jvf6FgI+l+IN4ahvHrSMi740oaqS++RHMaTTfDiaWheCvOdg
jOfTIA9ycFJPAIHlbeQcQ9jldOVvQZD9Ld+HIs/gk7c4xJa4rLFkl7ta7gaOhZM6
fm3fI7ysD3uDxwa0e0+wDhpzpdxx8ojIIXUsDLXnm8QJWBu66Xp5jCIH+fZAwNvf
s9stWRER8jbTidiDr56mf65a
-----END CERTIFICATE-----
