Certificate:
    Data:
        Version: 3 (0x2)
        Serial Number: 1048595 (0x100013)
    Signature Algorithm: sha1WithRSAEncryption
        Issuer: CN=OcedoCA
        Validity
            Not Before: Apr 13 10:05:59 2018 GMT
            Not After : Aug 28 10:05:59 2045 GMT
        Subject: CN=XN3C735F0DD218EB
        Subject Public Key Info:
            Public Key Algorithm: rsaEncryption
                Public-Key: (4096 bit)
                Modulus:
                    00:e2:f1:bd:f9:05:2f:0d:45:1a:60:2d:ed:17:48:
                    fa:5e:9b:e3:ff:d1:a8:fa:46:b8:16:e2:c7:5b:e6:
                    d9:bb:31:f1:24:61:1f:be:3b:88:73:f6:c0:f1:ee:
                    4a:94:05:16:2b:c0:9c:ef:70:3f:ba:2c:83:b7:ee:
                    33:97:62:06:20:2f:70:29:c9:b0:19:4c:17:48:d6:
                    df:7e:6d:5d:66:c6:14:4c:80:ec:4f:34:23:03:e6:
                    24:29:bd:b7:3b:a2:67:6f:bc:b6:c7:40:ff:23:7a:
                    98:80:96:cd:2f:85:44:bd:4a:2e:30:0e:e5:05:a6:
                    e7:7b:75:3b:19:a9:40:e6:82:14:ea:0a:f8:f7:5c:
                    7e:bb:f3:7e:86:ab:a3:69:c3:b0:d6:9e:09:0d:73:
                    d9:71:65:d6:b7:39:ce:59:19:c3:e5:ad:c5:3a:ab:
                    5a:38:da:2f:18:54:01:ca:1e:6a:75:42:b5:96:6f:
                    5b:fe:9d:6e:91:70:4b:61:d3:be:9f:1c:31:71:25:
                    22:7d:9a:f6:14:3e:35:46:38:b7:10:60:0b:97:3a:
                    66:e6:48:5e:e3:f6:90:9a:7c:3e:01:78:f6:0e:ad:
                    04:20:dc:93:f6:68:a4:00:28:da:7e:9a:77:19:0f:
                    72:65:c7:69:a3:4d:d9:06:a5:ff:cc:13:a5:5d:30:
                    01:b8:01:d0:38:c3:28:43:bc:53:f9:0d:ea:f7:d2:
                    1c:98:67:e7:62:ca:67:1b:a0:ec:c0:6c:2d:29:9d:
                    61:ff:3a:45:a2:a5:28:8d:fb:8e:9a:c4:26:e9:d0:
                    93:e2:a7:8c:d1:7d:d1:35:8d:c5:df:8c:b9:35:0b:
                    99:d9:a9:44:2d:5f:91:8c:fd:2d:4d:04:46:8d:15:
                    3f:6f:86:de:22:de:fc:d6:82:b7:8e:c1:aa:73:e5:
                    97:e7:52:9c:64:ce:08:52:14:f9:6f:5d:22:32:6f:
                    9d:8d:1a:ed:49:15:b6:dc:30:e8:99:c5:a8:2c:1f:
                    8a:69:a7:ab:17:15:33:30:55:13:2e:45:ef:0a:f8:
                    d5:0c:39:21:21:0b:ba:0f:9e:0e:1b:23:5d:66:c4:
                    38:91:2c:c4:25:03:03:47:a5:4b:e9:4b:8b:f8:1d:
                    d9:da:09:fc:a6:6d:59:21:de:56:97:8c:78:e1:46:
                    c9:c6:b0:74:4c:a6:8c:cb:16:35:c1:49:98:0e:7a:
                    7b:f5:b2:dd:9d:97:48:9c:52:a8:12:4a:bd:fe:87:
                    60:52:d4:07:04:86:c0:4c:c6:89:df:f0:f9:05:65:
                    b7:de:0e:3e:ca:e0:90:0b:61:2e:77:2d:92:fb:0b:
                    49:7d:45:f5:e7:c5:25:98:db:16:d4:17:9b:27:8e:
                    e3:b7:d7
                Exponent: 65537 (0x10001)
        X509v3 extensions:
            X509v3 Basic Constraints: 
                CA:FALSE
            X509v3 Subject Key Identifier: 
                B7:17:BC:9F:2A:33:26:B8:F4:C2:D4:6F:38:68:5A:B9:AB:B9:81:46
            X509v3 Authority Key Identifier: 
                keyid:52:AA:8A:2C:0F:A1:D1:40:27:C1:8F:CD:C1:11:24:6C:78:E7:E4:43

    Signature Algorithm: sha1WithRSAEncryption
         09:db:ed:8f:be:93:24:de:8a:a2:82:bb:f3:85:f1:1a:a7:a1:
         4b:6b:81:18:6f:3e:6d:50:f0:5a:53:46:1c:5b:77:7a:97:3d:
         01:35:5d:73:cb:74:bf:05:12:c0:0b:6d:52:5c:11:a4:9c:f2:
         cb:06:0c:4c:20:1c:c0:f9:e9:87:68:3f:c9:ff:40:45:c6:b4:
         03:7e:bf:39:69:6a:72:d3:c1:17:84:03:2f:e2:61:a6:a3:de:
         64:b4:d6:b8:2d:22:3d:fd:cf:4b:57:bb:1e:e1:12:f0:01:27:
         97:14:6b:c5:1d:d4:1e:24:61:df:e4:79:29:26:81:10:34:a5:
         93:66:44:11:c2:be:ba:dc:51:02:d9:c0:7a:a5:d7:87:c2:02:
         0d:0c:a0:02:f3:9d:28:27:ff:93:0d:03:55:7d:c3:0c:8a:05:
         c3:6a:55:0f:08:fa:e5:b1:1b:bb:e5:7d:72:69:e7:18:6b:f6:
         db:6e:34:ea:d3:a4:1b:e6:ea:d1:8c:82:5d:cc:b6:4d:97:7d:
         4c:0a:88:ab:e0:d7:ef:ed:a0:bf:3a:b2:50:0f:21:62:c4:94:
         01:f0:85:00:f9:b8:21:9b:44:a0:9e:4a:fd:1f:2a:94:0d:2f:
         a4:af:5f:50:81:f1:56:a3:27:fc:33:f2:c1:89:7d:2a:0b:62:
         d1:d8:27:b0:8c:64:16:c8:9b:89:fd:aa:65:d6:dc:76:79:d9:
         f2:e8:2a:2f:16:ed:0f:ec:36:8c:2c:e8:83:c3:29:36:2c:d1:
         90:36:85:9c:9d:36:8e:57:ff:ef:6e:6c:4b:0f:6e:0d:59:d6:
         5a:4b:b7:aa:d1:2c:49:69:5e:ee:f9:e7:ff:29:af:6b:c1:ac:
         01:22:42:55:d7:27:6e:c7:92:fb:61:83:38:7d:39:05:60:2f:
         d2:e4:1f:e3:9a:f2:cd:4e:93:1b:36:5d:63:b9:92:4e:c7:da:
         3d:dd:70:a3:c0:03:cc:ae:40:77:30:1f:1d:f2:60:4d:2d:f3:
         0d:f0:77:b8:34:0e:55:fa:e6:31:ce:34:62:16:97:90:26:52:
         bc:21:24:6c:9c:98:57:8c:d0:a3:33:43:69:36:80:09:b7:46:
         57:40:e5:1e:38:cc:84:26:09:92:e7:1f:13:df:01:7d:3b:bb:
         6b:98:cd:48:3e:3a:f3:81:bc:1e:f9:45:b1:ec:28:4c:76:43:
         ba:17:25:ad:98:f4:60:a3:e1:94:8d:bc:ab:3a:33:a1:1e:38:
         c5:69:2b:1d:b2:79:20:10:cb:26:73:7e:b7:9b:5d:eb:75:f2:
         80:16:83:e8:8e:65:b6:b3:0b:17:ed:f1:16:1b:57:38:84:3f:
         ef:2a:8c:ac:8e:4d:3d:d6
-----BEGIN CERTIFICATE-----
MIIE9zCCAt+gAwIBAgIDEAATMA0GCSqGSIb3DQEBBQUAMBIxEDAOBgNVBAMMB09j
ZWRvQ0EwHhcNMTgwNDEzMTAwNTU5WhcNNDUwODI4MTAwNTU5WjAbMRkwFwYDVQQD
DBBYTjNDNzM1RjBERDIxOEVCMIICIjANBgkqhkiG9w0BAQEFAAOCAg8AMIICCgKC
AgEA4vG9+QUvDUUaYC3tF0j6Xpvj/9Go+ka4FuLHW+bZuzHxJGEfvjuIc/bA8e5K
lAUWK8Cc73A/uiyDt+4zl2IGIC9wKcmwGUwXSNbffm1dZsYUTIDsTzQjA+YkKb23
O6Jnb7y2x0D/I3qYgJbNL4VEvUouMA7lBabne3U7GalA5oIU6gr491x+u/N+hquj
acOw1p4JDXPZcWXWtznOWRnD5a3FOqtaONovGFQByh5qdUK1lm9b/p1ukXBLYdO+
nxwxcSUifZr2FD41Rji3EGALlzpm5khe4/aQmnw+AXj2Dq0EINyT9mikACjafpp3
GQ9yZcdpo03ZBqX/zBOlXTABuAHQOMMoQ7xT+Q3q99IcmGfnYspnG6DswGwtKZ1h
/zpFoqUojfuOmsQm6dCT4qeM0X3RNY3F34y5NQuZ2alELV+RjP0tTQRGjRU/b4be
It781oK3jsGqc+WX51KcZM4IUhT5b10iMm+djRrtSRW23DDomcWoLB+KaaerFxUz
MFUTLkXvCvjVDDkhIQu6D54OGyNdZsQ4kSzEJQMDR6VL6UuL+B3Z2gn8pm1ZId5W
l4x44UbJxrB0TKaMyxY1wUmYDnp79bLdnZdInFKoEkq9/odgUtQHBIbATMaJ3/D5
BWW33g4+yuCQC2Eudy2S+wtJfUX158UlmNsW1BebJ47jt9cCAwEAAaNNMEswCQYD
VR0TBAIwADAdBgNVHQ4EFgQUtxe8nyozJrj0wtRvOGhauau5gUYwHwYDVR0jBBgw
FoAUUqqKLA+h0UAnwY/NwREkbHjn5EMwDQYJKoZIhvcNAQEFBQADggIBAAnb7Y++
kyTeiqKCu/OF8RqnoUtrgRhvPm1Q8FpTRhxbd3qXPQE1XXPLdL8FEsALbVJcEaSc
8ssGDEwgHMD56YdoP8n/QEXGtAN+vzlpanLTwReEAy/iYaaj3mS01rgtIj39z0tX
ux7hEvABJ5cUa8Ud1B4kYd/keSkmgRA0pZNmRBHCvrrcUQLZwHql14fCAg0MoALz
nSgn/5MNA1V9wwyKBcNqVQ8I+uWxG7vlfXJp5xhr9ttuNOrTpBvm6tGMgl3Mtk2X
fUwKiKvg1+/toL86slAPIWLElAHwhQD5uCGbRKCeSv0fKpQNL6SvX1CB8VajJ/wz
8sGJfSoLYtHYJ7CMZBbIm4n9qmXW3HZ52fLoKi8W7Q/sNows6IPDKTYs0ZA2hZyd
No5X/+9ubEsPbg1Z1lpLt6rRLElpXu755/8pr2vBrAEiQlXXJ27Hkvthgzh9OQVg
L9LkH+Oa8s1Okxs2XWO5kk7H2j3dcKPAA8yuQHcwHx3yYE0t8w3wd7g0DlX65jHO
NGIWl5AmUrwhJGycmFeM0KMzQ2k2gAm3RldA5R44zIQmCZLnHxPfAX07u2uYzUg+
OvOBvB75RbHsKEx2Q7oXJa2Y9GCj4ZSNvKs6M6EeOMVpKx2yeSAQyyZzfrebXet1
8oAWg+iOZbazCxft8RYbVziEP+8qjKyOTT3W
-----END CERTIFICATE-----
