Certificate:
    Data:
        Version: 3 (0x2)
        Serial Number: 1048600 (0x100018)
    Signature Algorithm: sha1WithRSAEncryption
        Issuer: CN=OcedoCA
        Validity
            Not Before: Apr 16 08:26:36 2018 GMT
            Not After : Aug 31 08:26:36 2045 GMT
        Subject: CN=XN4DF6823A627B93
        Subject Public Key Info:
            Public Key Algorithm: rsaEncryption
                Public-Key: (4096 bit)
                Modulus:
                    00:c0:b6:49:70:ba:c5:e5:b7:2f:e7:6e:d5:1e:c2:
                    66:8e:93:95:65:90:41:a7:ff:2f:a8:ec:4f:49:06:
                    d4:3c:50:91:a1:d5:07:c3:91:50:c9:88:06:7e:12:
                    8d:85:d6:98:79:f0:9f:80:97:99:8f:cf:72:44:ff:
                    32:6a:09:a4:c2:3a:24:e7:3a:39:e1:14:71:e3:d2:
                    e4:4f:3c:72:f0:d6:3e:a9:35:1a:b4:29:8f:5e:9c:
                    88:19:b4:10:5f:70:17:e0:1b:eb:36:89:b7:7b:2b:
                    a4:6c:07:d6:47:13:f1:b2:89:f6:a3:2c:57:9b:4a:
                    0c:75:3c:0c:d8:2f:5a:c9:e5:d2:27:ab:8a:0d:23:
                    8c:28:2c:ed:d4:c4:b4:83:b1:ae:7e:b4:97:5d:d0:
                    79:fe:74:34:ab:af:ea:c2:4e:df:eb:67:e2:c7:62:
                    1d:3d:78:42:19:1d:62:b0:9b:6a:85:14:12:4f:ec:
                    c5:74:67:94:bd:ee:28:09:e0:b0:ab:68:2f:e2:92:
                    9f:3d:bb:29:96:7d:68:5c:b1:1a:08:8d:66:b2:68:
                    e7:d7:39:14:d4:d2:96:56:af:2e:3b:e3:a1:44:8d:
                    bc:f8:f5:73:6c:72:e3:ec:ae:b8:ed:cd:94:04:a2:
                    43:1d:2d:01:9e:89:8a:fb:c2:f5:eb:ca:7a:7e:cd:
                    d1:dc:14:82:80:e9:72:63:89:cd:c1:d6:dc:08:34:
                    4d:d3:b1:3a:31:d7:93:b5:cb:da:5b:52:db:c0:2d:
                    e9:23:80:36:27:c2:b3:e8:9d:13:93:58:33:ff:b1:
                    1c:ed:94:71:3f:c3:f4:19:2e:11:8e:5a:23:a0:42:
                    ab:5d:53:04:dd:d0:27:60:bf:ec:c9:1a:c7:19:70:
                    03:6d:23:1e:2f:09:1b:ad:3a:da:56:66:01:cf:df:
                    d5:2e:26:1c:42:7c:8b:26:6b:8a:ad:7a:5b:49:15:
                    22:0c:78:b6:5e:89:2d:9c:fb:28:ec:72:a1:64:60:
                    25:1c:8f:3d:ce:34:dc:90:36:9a:76:e7:36:00:da:
                    a7:e3:ad:0b:9e:d8:4e:c8:1d:4e:fd:be:4f:ad:36:
                    8e:dc:c4:e4:3f:08:2b:09:a5:11:8a:76:ea:8e:ad:
                    4f:17:93:04:43:e6:91:b2:12:f3:09:66:14:8e:4e:
                    b0:cf:a7:15:db:cb:de:30:bd:0a:d5:5a:9f:7d:13:
                    2a:47:83:c7:4f:d1:57:9c:0f:20:f7:15:dc:e1:5a:
                    d3:04:6f:7b:f5:ee:02:08:60:f2:ef:7f:e6:47:51:
                    9e:b8:b7:b1:42:8c:f3:a7:72:84:ef:41:b5:4c:1b:
                    61:56:be:5a:cc:e7:16:f0:ef:6b:75:11:69:d5:02:
                    24:db:cd
                Exponent: 65537 (0x10001)
        X509v3 extensions:
            X509v3 Basic Constraints: 
                CA:FALSE
            X509v3 Subject Key Identifier: 
                77:62:14:0B:99:03:C5:DA:CE:98:FE:4E:A9:33:14:CE:B4:DD:6B:63
            X509v3 Authority Key Identifier: 
                keyid:52:AA:8A:2C:0F:A1:D1:40:27:C1:8F:CD:C1:11:24:6C:78:E7:E4:43

    Signature Algorithm: sha1WithRSAEncryption
         ac:c7:68:eb:f7:a1:f3:7d:8b:06:0f:96:b2:22:8a:12:53:5a:
         b8:d5:80:e8:b6:cc:a9:e2:99:ac:ba:9b:c8:5c:e1:5a:e4:5f:
         61:37:8a:72:5d:b6:11:46:c2:cb:ef:9c:14:c6:38:5b:aa:b9:
         df:ce:9d:09:47:c6:43:8f:a6:fc:ad:a8:57:a6:c0:f2:ab:57:
         46:cf:c6:ce:7c:d2:a8:11:4c:7a:b1:d3:3d:74:9f:b9:78:d5:
         8d:93:99:10:87:d0:ef:8f:f9:9d:c6:0e:e3:5f:a1:71:7c:a7:
         68:e2:e2:ea:eb:11:69:80:dc:e2:d9:1e:bf:73:28:dd:34:5c:
         20:57:7f:f7:b6:d7:e5:4e:ee:dc:14:e9:79:83:b9:f6:a8:af:
         ca:a3:c0:e1:7a:56:90:6a:e7:56:26:dd:f9:6d:22:e2:97:4c:
         56:51:9f:25:96:d1:87:09:78:cc:d8:8f:0a:b1:87:58:d0:b6:
         07:89:ac:6e:9b:7f:da:da:85:1b:32:fa:dc:ed:55:3b:87:71:
         f4:f6:3c:31:14:82:bc:5c:7a:2d:7e:95:13:3e:f4:14:40:cc:
         0f:d9:af:0f:27:ed:f3:5d:8d:d0:eb:5e:38:44:09:7e:c5:a1:
         fe:3b:52:0a:9a:b3:e5:c8:c8:56:a0:d9:f0:b3:02:bd:96:03:
         1a:b7:32:92:f4:f9:d9:d9:1b:73:9c:b2:cb:2a:9f:32:1b:8f:
         81:5b:26:1a:2d:e9:6f:bc:ae:dc:e9:94:79:d6:2c:5c:2c:40:
         aa:6c:28:96:ca:0e:24:c8:cc:71:dc:7d:e1:6b:77:8b:7a:c6:
         b6:c0:12:95:ab:ea:e7:58:b1:9f:14:aa:7d:01:4e:5c:72:ef:
         5f:f1:c5:3e:43:52:cf:13:01:fd:2b:4e:12:54:53:2c:c9:80:
         fa:be:8a:d0:6a:30:80:18:83:8d:4a:31:ca:5d:ce:4b:23:88:
         b1:b1:40:32:92:76:e7:bc:b3:d4:8f:d8:a3:59:dd:ba:e4:0b:
         8b:49:2c:64:8f:41:87:d4:bb:9b:fa:5c:22:88:b3:f6:9b:2f:
         54:51:c4:d1:d7:f4:49:cb:36:0a:ec:dd:d4:d5:c6:5d:27:cd:
         f9:c1:24:1b:e4:30:ac:fa:37:4a:7d:40:cd:c5:25:e4:7e:77:
         e8:f4:77:94:0e:71:8f:51:bf:dd:d0:69:57:70:72:e5:ef:ce:
         03:0c:56:4b:41:a5:84:b2:60:16:b5:c4:6e:d6:d7:e2:a0:e3:
         12:1a:a7:fc:d8:32:11:62:ba:14:e6:f6:bd:32:06:91:c1:b8:
         ba:97:33:ea:f7:0a:09:a3:87:3d:87:0d:49:f9:bb:7f:3d:70:
         f0:14:54:53:88:05:93:96
-----BEGIN CERTIFICATE-----
MIIE9zCCAt+gAwIBAgIDEAAYMA0GCSqGSIb3DQEBBQUAMBIxEDAOBgNVBAMMB09j
ZWRvQ0EwHhcNMTgwNDE2MDgyNjM2WhcNNDUwODMxMDgyNjM2WjAbMRkwFwYDVQQD
DBBYTjRERjY4MjNBNjI3QjkzMIICIjANBgkqhkiG9w0BAQEFAAOCAg8AMIICCgKC
AgEAwLZJcLrF5bcv527VHsJmjpOVZZBBp/8vqOxPSQbUPFCRodUHw5FQyYgGfhKN
hdaYefCfgJeZj89yRP8yagmkwjok5zo54RRx49LkTzxy8NY+qTUatCmPXpyIGbQQ
X3AX4BvrNom3eyukbAfWRxPxson2oyxXm0oMdTwM2C9ayeXSJ6uKDSOMKCzt1MS0
g7GufrSXXdB5/nQ0q6/qwk7f62fix2IdPXhCGR1isJtqhRQST+zFdGeUve4oCeCw
q2gv4pKfPbspln1oXLEaCI1msmjn1zkU1NKWVq8uO+OhRI28+PVzbHLj7K647c2U
BKJDHS0BnomK+8L168p6fs3R3BSCgOlyY4nNwdbcCDRN07E6MdeTtcvaW1LbwC3p
I4A2J8Kz6J0Tk1gz/7Ec7ZRxP8P0GS4RjlojoEKrXVME3dAnYL/syRrHGXADbSMe
LwkbrTraVmYBz9/VLiYcQnyLJmuKrXpbSRUiDHi2XoktnPso7HKhZGAlHI89zjTc
kDaaduc2ANqn460LnthOyB1O/b5PrTaO3MTkPwgrCaURinbqjq1PF5MEQ+aRshLz
CWYUjk6wz6cV28veML0K1VqffRMqR4PHT9FXnA8g9xXc4VrTBG979e4CCGDy73/m
R1GeuLexQozzp3KE70G1TBthVr5azOcW8O9rdRFp1QIk280CAwEAAaNNMEswCQYD
VR0TBAIwADAdBgNVHQ4EFgQUd2IUC5kDxdrOmP5OqTMUzrTda2MwHwYDVR0jBBgw
FoAUUqqKLA+h0UAnwY/NwREkbHjn5EMwDQYJKoZIhvcNAQEFBQADggIBAKzHaOv3
ofN9iwYPlrIiihJTWrjVgOi2zKnimay6m8hc4VrkX2E3inJdthFGwsvvnBTGOFuq
ud/OnQlHxkOPpvytqFemwPKrV0bPxs580qgRTHqx0z10n7l41Y2TmRCH0O+P+Z3G
DuNfoXF8p2ji4urrEWmA3OLZHr9zKN00XCBXf/e21+VO7twU6XmDufaor8qjwOF6
VpBq51Ym3fltIuKXTFZRnyWW0YcJeMzYjwqxh1jQtgeJrG6bf9rahRsy+tztVTuH
cfT2PDEUgrxcei1+lRM+9BRAzA/Zrw8n7fNdjdDrXjhECX7Fof47Ugqas+XIyFag
2fCzAr2WAxq3MpL0+dnZG3OcsssqnzIbj4FbJhot6W+8rtzplHnWLFwsQKpsKJbK
DiTIzHHcfeFrd4t6xrbAEpWr6udYsZ8Uqn0BTlxy71/xxT5DUs8TAf0rThJUUyzJ
gPq+itBqMIAYg41KMcpdzksjiLGxQDKSdue8s9SP2KNZ3brkC4tJLGSPQYfUu5v6
XCKIs/abL1RRxNHX9EnLNgrs3dTVxl0nzfnBJBvkMKz6N0p9QM3FJeR+d+j0d5QO
cY9Rv93QaVdwcuXvzgMMVktBpYSyYBa1xG7W1+Kg4xIap/zYMhFiuhTm9r0yBpHB
uLqXM+r3Cgmjhz2HDUn5u389cPAUVFOIBZOW
-----END CERTIFICATE-----
