Certificate:
    Data:
        Version: 3 (0x2)
        Serial Number: 1048604 (0x10001c)
    Signature Algorithm: sha1WithRSAEncryption
        Issuer: CN=OcedoCA
        Validity
            Not Before: May  3 12:28:08 2018 GMT
            Not After : Sep 17 12:28:08 2045 GMT
        Subject: CN=XN027001C54DC38E
        Subject Public Key Info:
            Public Key Algorithm: rsaEncryption
                Public-Key: (4096 bit)
                Modulus:
                    00:b7:ca:5b:12:57:e4:46:4b:49:31:c7:5c:ad:ec:
                    65:5a:87:5e:80:03:06:38:c1:2f:b7:d8:54:fd:54:
                    f0:35:d7:54:eb:59:8c:57:76:8f:cc:9e:d7:28:cd:
                    f2:02:0d:26:fa:32:0c:64:3a:3f:1d:d5:81:74:cb:
                    dc:59:a2:16:5f:53:85:21:56:eb:2c:11:1d:32:f0:
                    7e:86:50:5a:32:0f:39:3b:a0:b6:81:dd:25:9c:95:
                    ae:53:01:2b:50:90:57:f2:fa:74:32:47:b3:fb:b6:
                    b5:a8:96:7f:43:6d:86:32:33:c0:3f:3e:18:40:92:
                    d9:3e:95:2b:4e:36:c0:a6:7f:72:5d:04:4d:97:6f:
                    a7:11:9c:85:4a:37:8f:1e:dd:88:9f:41:28:c3:68:
                    0a:c3:41:72:06:49:58:2d:19:95:f2:34:ba:69:77:
                    ba:62:f6:74:ff:dc:2e:f7:e1:bb:c4:10:fc:45:36:
                    52:da:3e:00:e6:c5:ca:8e:aa:b9:5d:3a:44:43:91:
                    bd:d0:cd:30:a0:0f:e8:fe:06:3c:c9:a8:60:81:ff:
                    10:e8:ad:71:a3:73:b7:d7:83:d0:49:b5:58:d4:86:
                    07:01:ea:12:1a:d8:13:11:43:ae:cd:33:fb:36:4e:
                    84:ab:17:7c:4f:36:eb:de:67:44:70:1a:a4:3f:0f:
                    37:9a:dc:73:88:91:ee:7f:04:1f:86:0d:80:6e:33:
                    40:f3:1d:f3:1a:1f:10:d2:70:01:3a:07:4d:7c:bf:
                    d3:41:97:4a:71:e5:85:28:69:0f:5a:fe:90:3f:61:
                    a3:77:f7:98:ad:56:17:3f:76:19:9e:3a:a1:6f:ca:
                    8e:1f:5f:ca:af:af:16:10:6f:36:5f:ca:f3:af:02:
                    72:b6:0d:a0:be:3a:3a:71:90:f6:16:0c:f9:06:93:
                    aa:d4:0a:85:fc:3f:ff:79:06:10:dc:7f:ef:04:4e:
                    0d:44:7a:4a:4d:c1:9c:47:36:36:5d:f1:f9:ba:dc:
                    67:37:01:3b:e9:3e:de:a0:9b:6e:89:99:32:00:e6:
                    36:2d:18:18:66:80:70:b1:1e:1a:e4:24:a9:54:34:
                    b3:dd:77:15:f5:72:63:dd:b5:dc:e5:c8:e7:68:db:
                    29:88:63:75:21:20:a8:a5:f9:17:ae:1f:4a:23:3b:
                    60:43:4a:79:06:30:34:48:69:54:18:a3:6a:d9:1e:
                    72:b9:a7:27:c5:fa:b5:44:da:6e:37:37:c8:c2:c9:
                    d8:87:30:a4:72:b6:e2:81:f4:a0:34:e1:43:fe:ae:
                    7f:97:75:b6:50:d2:b2:cc:40:9b:b0:9e:41:72:28:
                    62:1b:af:5e:ea:f9:4d:b5:e9:ff:bd:bf:fa:5b:a7:
                    55:22:6f
                Exponent: 65537 (0x10001)
        X509v3 extensions:
            X509v3 Basic Constraints: 
                CA:FALSE
            X509v3 Subject Key Identifier: 
                54:11:07:28:6E:4E:1D:82:09:5E:5E:70:6C:50:F1:65:A3:3C:14:65
            X509v3 Authority Key Identifier: 
                keyid:52:AA:8A:2C:0F:A1:D1:40:27:C1:8F:CD:C1:11:24:6C:78:E7:E4:43

    Signature Algorithm: sha1WithRSAEncryption
         44:36:a1:df:49:45:0d:8f:9e:8b:2d:16:b5:74:83:b3:34:c7:
         bc:5d:b7:b1:9e:bb:e9:e7:05:06:24:3b:bd:be:aa:cf:63:62:
         c8:c1:cf:fb:51:c9:77:5b:3a:67:8f:49:44:5e:02:18:c3:f8:
         ee:d4:2f:c9:2c:d1:19:56:3d:aa:80:cc:a1:d6:ca:08:19:3d:
         6c:d9:08:3e:97:80:e6:be:e9:26:02:6d:78:21:dc:6f:73:8b:
         01:90:a6:4f:13:ef:e3:13:5c:57:f2:54:2c:ff:98:df:af:cf:
         ec:99:f5:b1:8a:0a:a5:80:dd:36:e8:71:d4:b9:c2:90:e6:e5:
         02:28:bf:34:9e:24:5d:aa:81:75:71:aa:c9:fd:c7:68:a7:df:
         af:15:1c:a8:13:07:40:9d:64:23:fe:d0:8d:cf:6e:57:86:ff:
         73:30:86:ae:1d:56:96:b1:b9:68:82:15:0d:95:8a:9e:1b:81:
         3d:d3:da:68:c2:37:9f:cb:72:c2:20:6a:6a:bb:c9:49:9f:7b:
         ee:29:79:99:cf:01:31:48:51:91:27:0c:2e:d7:88:45:43:0f:
         c3:c5:59:99:da:f4:df:9e:e2:7b:7c:96:0c:9e:64:b3:fa:4f:
         22:eb:55:5d:3c:13:e2:2a:6a:cd:c5:5f:b7:4d:8a:55:f6:bf:
         62:dd:60:ae:08:f0:20:50:47:cf:6b:47:5e:df:f5:48:f3:a0:
         f8:0b:01:27:db:35:f5:b2:f7:bf:5f:af:57:cc:5c:c2:9e:34:
         ba:e4:58:5c:0c:18:7b:b4:57:71:25:a5:16:7f:8c:f9:5c:66:
         b2:eb:8d:13:15:08:9f:96:86:b9:92:b6:4a:66:bf:c9:7c:29:
         35:8f:0e:d8:eb:e1:3b:5f:fc:59:00:0b:97:f6:a2:ed:18:0f:
         19:f0:9b:5b:58:13:d5:c5:17:20:a4:58:b2:06:b9:da:2c:27:
         4d:95:5d:b8:e9:5a:46:1e:86:56:38:00:e3:77:df:76:b8:e5:
         6a:95:66:f9:45:8f:75:28:09:2a:f5:a1:90:8f:ac:fc:4a:33:
         89:fc:b3:bd:61:52:1c:c9:06:04:de:59:14:b2:44:32:96:ba:
         d3:40:5d:80:4b:a6:31:c4:4b:0b:1f:e3:92:da:ca:42:ff:19:
         88:fe:0b:ed:40:43:b5:83:c2:9e:e5:ac:be:b6:20:cf:09:65:
         a3:8e:dc:22:21:94:93:dc:f6:a7:eb:87:d1:68:e5:30:3c:ba:
         dc:4a:63:93:ad:92:0f:dd:e7:71:ad:bc:32:13:31:70:62:14:
         12:5e:14:a3:fc:7c:02:2b:c0:47:a0:c2:6f:e7:43:ce:ea:74:
         9c:3f:17:31:5c:8c:6a:5a
-----BEGIN CERTIFICATE-----
MIIE9zCCAt+gAwIBAgIDEAAcMA0GCSqGSIb3DQEBBQUAMBIxEDAOBgNVBAMMB09j
ZWRvQ0EwHhcNMTgwNTAzMTIyODA4WhcNNDUwOTE3MTIyODA4WjAbMRkwFwYDVQQD
DBBYTjAyNzAwMUM1NERDMzhFMIICIjANBgkqhkiG9w0BAQEFAAOCAg8AMIICCgKC
AgEAt8pbElfkRktJMcdcrexlWodegAMGOMEvt9hU/VTwNddU61mMV3aPzJ7XKM3y
Ag0m+jIMZDo/HdWBdMvcWaIWX1OFIVbrLBEdMvB+hlBaMg85O6C2gd0lnJWuUwEr
UJBX8vp0Mkez+7a1qJZ/Q22GMjPAPz4YQJLZPpUrTjbApn9yXQRNl2+nEZyFSjeP
Ht2In0Eow2gKw0FyBklYLRmV8jS6aXe6YvZ0/9wu9+G7xBD8RTZS2j4A5sXKjqq5
XTpEQ5G90M0woA/o/gY8yahggf8Q6K1xo3O314PQSbVY1IYHAeoSGtgTEUOuzTP7
Nk6Eqxd8Tzbr3mdEcBqkPw83mtxziJHufwQfhg2AbjNA8x3zGh8Q0nABOgdNfL/T
QZdKceWFKGkPWv6QP2Gjd/eYrVYXP3YZnjqhb8qOH1/Kr68WEG82X8rzrwJytg2g
vjo6cZD2Fgz5BpOq1AqF/D//eQYQ3H/vBE4NRHpKTcGcRzY2XfH5utxnNwE76T7e
oJtuiZkyAOY2LRgYZoBwsR4a5CSpVDSz3XcV9XJj3bXc5cjnaNspiGN1ISCopfkX
rh9KIztgQ0p5BjA0SGlUGKNq2R5yuacnxfq1RNpuNzfIwsnYhzCkcrbigfSgNOFD
/q5/l3W2UNKyzECbsJ5BcihiG69e6vlNten/vb/6W6dVIm8CAwEAAaNNMEswCQYD
VR0TBAIwADAdBgNVHQ4EFgQUVBEHKG5OHYIJXl5wbFDxZaM8FGUwHwYDVR0jBBgw
FoAUUqqKLA+h0UAnwY/NwREkbHjn5EMwDQYJKoZIhvcNAQEFBQADggIBAEQ2od9J
RQ2PnostFrV0g7M0x7xdt7Geu+nnBQYkO72+qs9jYsjBz/tRyXdbOmePSUReAhjD
+O7UL8ks0RlWPaqAzKHWyggZPWzZCD6XgOa+6SYCbXgh3G9ziwGQpk8T7+MTXFfy
VCz/mN+vz+yZ9bGKCqWA3TbocdS5wpDm5QIovzSeJF2qgXVxqsn9x2in368VHKgT
B0CdZCP+0I3PbleG/3Mwhq4dVpaxuWiCFQ2Vip4bgT3T2mjCN5/LcsIgamq7yUmf
e+4peZnPATFIUZEnDC7XiEVDD8PFWZna9N+e4nt8lgyeZLP6TyLrVV08E+Iqas3F
X7dNilX2v2LdYK4I8CBQR89rR17f9UjzoPgLASfbNfWy979fr1fMXMKeNLrkWFwM
GHu0V3ElpRZ/jPlcZrLrjRMVCJ+WhrmStkpmv8l8KTWPDtjr4Ttf/FkAC5f2ou0Y
Dxnwm1tYE9XFFyCkWLIGudosJ02VXbjpWkYehlY4AON333a45WqVZvlFj3UoCSr1
oZCPrPxKM4n8s71hUhzJBgTeWRSyRDKWutNAXYBLpjHESwsf45LaykL/GYj+C+1A
Q7WDwp7lrL62IM8JZaOO3CIhlJPc9qfrh9Fo5TA8utxKY5Otkg/d53GtvDITMXBi
FBJeFKP8fAIrwEegwm/nQ87qdJw/FzFcjGpa
-----END CERTIFICATE-----
