Certificate:
    Data:
        Version: 3 (0x2)
        Serial Number: 1048602 (0x10001a)
    Signature Algorithm: sha1WithRSAEncryption
        Issuer: CN=OcedoCA
        Validity
            Not Before: Apr 16 09:13:46 2018 GMT
            Not After : Aug 31 09:13:46 2045 GMT
        Subject: CN=XNB79A7DD5061971
        Subject Public Key Info:
            Public Key Algorithm: rsaEncryption
                Public-Key: (4096 bit)
                Modulus:
                    00:cf:10:33:31:1f:64:84:39:3f:e0:0c:4a:e4:69:
                    26:2d:4c:7e:7d:d2:fe:a6:d9:6a:08:b1:4a:c6:ab:
                    9b:04:12:02:cf:92:0e:85:56:97:3d:78:1c:f1:8c:
                    fb:82:cb:dc:cb:99:ff:b6:a7:0e:e3:67:f4:3b:b3:
                    0f:51:d2:ae:7f:91:67:de:22:4c:ef:b4:55:ee:67:
                    5c:24:20:63:11:14:8b:be:3d:61:65:1c:88:ee:04:
                    f9:49:8b:54:ab:09:d2:b0:6a:97:74:d5:81:d8:d4:
                    4d:ad:f8:ed:a0:42:28:9e:f1:32:ae:68:ec:78:94:
                    23:9c:41:57:08:dc:4a:18:13:cd:35:37:f1:30:4c:
                    93:58:d8:4f:29:8a:14:5a:a1:6c:47:74:f7:57:66:
                    55:15:01:5a:40:13:ef:a0:0e:9a:2b:4f:e3:77:fd:
                    40:3f:cf:b6:72:be:b1:a0:4a:67:2b:f2:e8:88:48:
                    c6:4b:88:36:c7:d5:2b:64:de:9a:a7:44:4a:49:4c:
                    15:05:98:bb:03:8e:bf:d2:ba:f7:39:83:40:01:2f:
                    94:d3:85:ca:63:9c:c7:3e:ce:5e:1e:37:19:5b:7b:
                    cf:89:d2:95:b3:7c:32:42:c9:42:f7:c9:5d:39:26:
                    49:55:4b:d7:2f:74:f0:5c:cd:b4:d4:1c:bc:17:41:
                    82:96:68:69:21:d7:11:91:67:6c:da:01:c3:37:27:
                    ec:ee:b2:81:d6:94:38:73:3c:7d:3b:03:c9:1e:b0:
                    d6:99:4b:2a:1a:a4:d7:91:62:5b:d3:61:3d:8a:14:
                    b4:dd:47:88:7e:32:64:2f:a3:aa:ab:4a:96:7f:05:
                    36:04:34:c7:4a:e5:38:8d:c7:f5:45:6f:48:fd:eb:
                    37:3e:c4:3a:62:a4:fa:f7:20:e2:5e:0c:f1:06:78:
                    78:d6:ab:5a:aa:98:3b:79:c0:4a:81:f8:db:fc:18:
                    68:3a:40:e7:30:1c:08:62:e6:8e:91:b7:b2:0c:cd:
                    00:bd:cf:0e:1c:c7:f7:f6:df:b4:a8:70:72:32:e4:
                    b9:ac:a0:c2:b3:ce:34:2a:a3:35:5b:0c:99:2d:a2:
                    eb:64:b7:a2:32:26:d3:5b:55:fd:4d:42:56:ec:9e:
                    31:2e:0d:fb:de:2a:d7:89:88:d0:9d:ca:51:d7:d8:
                    53:17:39:84:a6:fd:2b:b5:51:35:68:8a:6f:12:12:
                    6f:61:70:31:68:76:60:48:41:4e:66:84:af:40:34:
                    11:2f:57:9f:e2:7c:3f:18:7f:13:5d:99:a1:41:b4:
                    cd:5a:b1:0f:2c:96:80:fc:67:4e:4a:20:24:a0:fb:
                    c4:61:c2:fc:22:b4:9a:02:dc:50:d8:ba:07:70:51:
                    ed:b7:07
                Exponent: 65537 (0x10001)
        X509v3 extensions:
            X509v3 Basic Constraints: 
                CA:FALSE
            X509v3 Subject Key Identifier: 
                2C:F8:DB:F2:02:19:9D:C1:BC:42:73:92:06:8F:17:39:9F:13:C8:E2
            X509v3 Authority Key Identifier: 
                keyid:52:AA:8A:2C:0F:A1:D1:40:27:C1:8F:CD:C1:11:24:6C:78:E7:E4:43

    Signature Algorithm: sha1WithRSAEncryption
         87:7a:a6:21:2e:12:dd:5d:dc:0c:18:f2:98:41:97:2f:4c:03:
         80:95:a2:81:f6:42:21:ec:4d:e7:9f:0d:b8:29:22:c9:bf:f0:
         c5:60:f8:97:fd:a0:7d:9f:7b:b6:f5:1a:d2:45:89:cc:f2:7f:
         90:6c:a1:4d:6d:dc:f2:3f:c4:42:f0:45:a7:fe:13:11:53:8e:
         f7:18:cd:ec:0d:ef:7d:44:fe:98:8e:d0:d5:3b:a8:a7:52:6e:
         5e:05:aa:72:3c:c3:39:74:ca:e3:2d:eb:9f:43:0c:e4:dd:d3:
         31:41:97:1d:4a:d2:e2:55:d7:0a:29:d1:8b:da:3b:b1:99:4e:
         cd:79:6d:91:7d:1e:7d:dd:92:e2:4b:48:19:34:56:de:8e:a1:
         93:9d:a7:91:fb:f1:19:7a:24:78:55:4c:ce:5b:b8:27:36:4a:
         72:b7:45:82:04:ae:b8:5e:cb:a9:e4:93:bb:85:97:25:5b:f2:
         4b:28:2d:96:fb:b3:aa:21:0d:88:b1:58:ff:8f:04:3f:87:2f:
         54:2d:bc:07:90:ae:d8:ae:27:28:89:55:4e:76:6e:de:57:e3:
         4a:2f:52:04:a1:2c:a5:f2:32:7f:71:2f:4f:95:90:93:2b:d1:
         7b:e8:b2:27:af:d6:f1:08:d1:96:01:6c:31:6f:e1:54:f9:82:
         1e:d5:eb:be:1c:a8:98:fe:98:fc:0b:eb:a5:5e:b8:6c:f2:aa:
         e6:d4:d9:85:23:0c:f7:11:ad:b2:9e:a7:14:6b:e3:00:0d:18:
         0a:e2:22:84:bc:4f:d7:f9:2f:b9:d8:de:2c:e3:11:fc:51:6a:
         b7:a3:db:62:d4:18:7a:e6:5e:0a:c8:2b:57:7e:03:d5:ea:55:
         67:50:4c:18:75:af:c6:f8:75:30:b0:25:f1:91:52:2d:2f:a9:
         18:23:85:5e:28:13:ee:fb:37:33:f4:bf:01:d1:f6:4a:ca:13:
         08:4e:34:21:fd:87:dc:0c:21:96:1d:9b:a2:b1:fa:22:de:6b:
         f0:47:16:a9:77:8f:a6:e0:fc:f7:d2:82:b7:e7:84:08:2e:51:
         43:14:8f:42:46:f8:ec:5f:14:c9:ef:ea:42:16:6a:47:07:66:
         5e:a6:0d:ea:4d:d7:aa:49:ef:c6:51:6f:ea:cb:64:57:37:c4:
         40:23:4a:55:bf:2c:a1:a3:3f:f7:60:be:fb:b1:3a:82:cd:ac:
         c4:89:90:b8:45:72:22:2e:b0:2e:e6:6a:d0:32:3b:0e:50:2e:
         80:82:e7:a4:ff:58:e0:84:17:4e:72:46:78:36:31:b9:0a:9b:
         8c:b9:7f:1d:21:ca:6c:ee:d9:cc:ad:ed:9f:3b:01:41:29:0c:
         28:84:5b:f2:04:71:9c:93
-----BEGIN CERTIFICATE-----
MIIE9zCCAt+gAwIBAgIDEAAaMA0GCSqGSIb3DQEBBQUAMBIxEDAOBgNVBAMMB09j
ZWRvQ0EwHhcNMTgwNDE2MDkxMzQ2WhcNNDUwODMxMDkxMzQ2WjAbMRkwFwYDVQQD
DBBYTkI3OUE3REQ1MDYxOTcxMIICIjANBgkqhkiG9w0BAQEFAAOCAg8AMIICCgKC
AgEAzxAzMR9khDk/4AxK5GkmLUx+fdL+ptlqCLFKxqubBBICz5IOhVaXPXgc8Yz7
gsvcy5n/tqcO42f0O7MPUdKuf5Fn3iJM77RV7mdcJCBjERSLvj1hZRyI7gT5SYtU
qwnSsGqXdNWB2NRNrfjtoEIonvEyrmjseJQjnEFXCNxKGBPNNTfxMEyTWNhPKYoU
WqFsR3T3V2ZVFQFaQBPvoA6aK0/jd/1AP8+2cr6xoEpnK/LoiEjGS4g2x9UrZN6a
p0RKSUwVBZi7A46/0rr3OYNAAS+U04XKY5zHPs5eHjcZW3vPidKVs3wyQslC98ld
OSZJVUvXL3TwXM201By8F0GClmhpIdcRkWds2gHDNyfs7rKB1pQ4czx9OwPJHrDW
mUsqGqTXkWJb02E9ihS03UeIfjJkL6Oqq0qWfwU2BDTHSuU4jcf1RW9I/es3PsQ6
YqT69yDiXgzxBnh41qtaqpg7ecBKgfjb/BhoOkDnMBwIYuaOkbeyDM0Avc8OHMf3
9t+0qHByMuS5rKDCs840KqM1WwyZLaLrZLeiMibTW1X9TUJW7J4xLg373irXiYjQ
ncpR19hTFzmEpv0rtVE1aIpvEhJvYXAxaHZgSEFOZoSvQDQRL1ef4nw/GH8TXZmh
QbTNWrEPLJaA/GdOSiAkoPvEYcL8IrSaAtxQ2LoHcFHttwcCAwEAAaNNMEswCQYD
VR0TBAIwADAdBgNVHQ4EFgQULPjb8gIZncG8QnOSBo8XOZ8TyOIwHwYDVR0jBBgw
FoAUUqqKLA+h0UAnwY/NwREkbHjn5EMwDQYJKoZIhvcNAQEFBQADggIBAId6piEu
Et1d3AwY8phBly9MA4CVooH2QiHsTeefDbgpIsm/8MVg+Jf9oH2fe7b1GtJFiczy
f5BsoU1t3PI/xELwRaf+ExFTjvcYzewN731E/piO0NU7qKdSbl4FqnI8wzl0yuMt
659DDOTd0zFBlx1K0uJV1wop0YvaO7GZTs15bZF9Hn3dkuJLSBk0Vt6OoZOdp5H7
8Rl6JHhVTM5buCc2SnK3RYIErrhey6nkk7uFlyVb8ksoLZb7s6ohDYixWP+PBD+H
L1QtvAeQrtiuJyiJVU52bt5X40ovUgShLKXyMn9xL0+VkJMr0Xvosiev1vEI0ZYB
bDFv4VT5gh7V674cqJj+mPwL66VeuGzyqubU2YUjDPcRrbKepxRr4wANGAriIoS8
T9f5L7nY3izjEfxRarej22LUGHrmXgrIK1d+A9XqVWdQTBh1r8b4dTCwJfGRUi0v
qRgjhV4oE+77NzP0vwHR9krKEwhONCH9h9wMIZYdm6Kx+iLea/BHFql3j6bg/PfS
grfnhAguUUMUj0JG+OxfFMnv6kIWakcHZl6mDepN16pJ78ZRb+rLZFc3xEAjSlW/
LKGjP/dgvvuxOoLNrMSJkLhFciIusC7matAyOw5QLoCC56T/WOCEF05yRng2MbkK
m4y5fx0hymzu2cyt7Z87AUEpDCiEW/IEcZyT
-----END CERTIFICATE-----
