Certificate:
    Data:
        Version: 3 (0x2)
        Serial Number: 1048586 (0x10000a)
    Signature Algorithm: sha1WithRSAEncryption
        Issuer: CN=OcedoCA
        Validity
            Not Before: Apr 12 09:12:19 2018 GMT
            Not After : Aug 27 09:12:19 2045 GMT
        Subject: CN=XN5973EB512CF9FD
        Subject Public Key Info:
            Public Key Algorithm: rsaEncryption
                Public-Key: (4096 bit)
                Modulus:
                    00:9e:a3:bb:57:94:f5:7b:0b:ac:9b:bc:3c:4a:ac:
                    34:a1:d5:63:64:d2:28:0a:5c:fa:6c:28:9e:98:32:
                    08:09:cf:48:27:a9:55:65:cb:ca:2b:51:a2:80:57:
                    40:b2:78:68:3c:58:33:cb:26:6b:15:ce:27:9e:5c:
                    1b:a2:f8:80:e9:af:d2:61:36:85:c2:4a:eb:84:ac:
                    41:8c:b3:2e:82:5c:37:4c:b4:30:2a:a6:30:50:11:
                    1c:8d:e2:c7:8d:22:44:8a:e8:6b:08:20:28:2f:f1:
                    77:28:3d:40:3e:23:ef:e6:e7:f3:be:0b:e4:6f:1d:
                    bd:c1:d9:28:55:01:c6:c5:43:89:0a:3a:f4:90:09:
                    ca:72:b0:fe:90:d9:ce:32:04:04:e6:94:ba:6b:16:
                    3a:d2:ba:36:bc:2c:47:71:9e:19:0d:55:75:f4:1d:
                    96:dc:38:73:6f:62:35:03:1e:6b:b6:11:9a:04:d0:
                    d9:e1:fe:12:48:7d:e3:97:07:2c:ee:9f:e4:1a:03:
                    c5:c2:34:5d:e7:a1:40:10:31:97:31:a2:12:a5:ca:
                    14:ba:f3:ac:8a:5e:85:83:96:0f:1c:22:f0:97:8c:
                    41:c6:f5:7f:e9:cf:b4:dd:d4:9d:61:00:e1:00:8a:
                    c9:51:fa:cc:8c:f3:d8:94:4e:ce:c9:ec:82:a7:67:
                    72:40:bb:3b:55:a6:45:ec:2d:08:0e:cd:2e:31:3a:
                    c3:6b:21:df:a8:22:18:5c:29:a6:88:f6:0b:5d:a8:
                    0a:86:8e:03:1d:17:dc:e0:1f:0c:77:0d:39:75:44:
                    db:b6:ba:1e:45:01:78:a8:0e:22:60:07:c4:a4:10:
                    9b:61:9a:3f:d7:95:b8:59:d9:5e:64:8e:ba:4b:9a:
                    f5:93:0b:a8:ab:5f:45:27:f0:44:8b:47:6e:2a:52:
                    34:e4:50:24:22:77:24:27:5c:0c:3a:4e:4d:2d:fa:
                    ed:5a:e7:67:96:4f:3c:3b:2d:91:d2:9e:a9:3d:e7:
                    f3:57:cc:3b:94:a5:4c:f2:ab:06:d7:08:e1:b5:35:
                    06:08:72:9d:01:36:c4:ec:a8:21:de:96:12:8f:98:
                    0c:40:f5:4b:c5:5a:37:9e:34:fa:18:3b:2c:b4:6c:
                    1a:67:8d:cc:9c:7c:cb:38:23:bd:55:b0:d8:a1:e9:
                    14:65:68:45:3f:43:4b:60:21:64:c5:13:a7:e4:8d:
                    d9:b0:88:f8:28:b7:4a:4b:14:3a:51:25:43:94:7d:
                    4e:8a:a6:45:c8:26:f3:f5:6e:0b:40:d0:2d:87:fe:
                    54:6b:13:6f:34:60:20:87:66:d9:2e:25:78:0c:a8:
                    4a:47:e5:3b:72:b3:83:f9:62:40:f9:ff:dc:05:2c:
                    c5:49:bd
                Exponent: 65537 (0x10001)
        X509v3 extensions:
            X509v3 Basic Constraints: 
                CA:FALSE
            X509v3 Subject Key Identifier: 
                20:6F:F7:F1:7F:2E:61:DA:E9:04:A7:72:72:24:9B:69:19:F6:BE:CC
            X509v3 Authority Key Identifier: 
                keyid:52:AA:8A:2C:0F:A1:D1:40:27:C1:8F:CD:C1:11:24:6C:78:E7:E4:43

    Signature Algorithm: sha1WithRSAEncryption
         b8:75:bc:94:a5:38:7a:e7:d7:82:67:fd:ab:90:41:7d:d0:58:
         50:31:2c:77:89:5a:c7:ca:ab:61:77:fc:a7:17:45:f8:67:d0:
         4e:9b:63:bb:71:86:80:15:8a:5b:b3:53:c2:5e:ae:cb:de:bf:
         3d:bf:64:f6:0b:2e:56:93:87:24:b8:75:b0:47:15:5c:ca:fb:
         11:3b:2b:95:a2:e9:9d:25:fe:73:dd:db:fa:29:a8:dc:a4:c4:
         60:25:81:2d:6c:4b:26:04:19:97:63:d8:6f:e9:17:c5:1f:d6:
         d9:9c:6b:8b:71:4a:21:b9:70:b0:46:53:f7:18:c3:1a:78:50:
         71:a8:c0:ab:a9:b5:61:a4:b9:38:e9:b0:38:82:63:52:89:9a:
         2e:de:02:91:5c:31:4a:f5:68:d1:fd:6d:85:b3:b7:ef:e2:c8:
         d7:44:d1:53:3c:2b:23:a9:68:bd:ab:47:05:d8:b7:40:ee:0c:
         79:4b:e8:e0:4f:1d:23:7b:88:4b:29:7c:4b:58:d6:68:f4:8c:
         a6:30:f4:1d:3e:b8:05:5c:13:dd:bc:1d:ab:1a:f6:9e:e2:68:
         2e:84:35:5d:39:68:d7:23:01:a4:01:7e:37:6d:d3:6d:12:82:
         93:96:3e:c0:65:11:01:04:02:9c:09:18:49:e3:91:1d:cb:3f:
         8a:3d:c9:3a:62:d5:34:e5:25:2b:29:f7:2d:21:6b:73:e9:79:
         3a:43:da:8a:e9:72:d2:6b:78:bf:0c:e9:99:a6:70:6e:74:6a:
         f7:b4:d2:99:51:8c:b7:b1:57:85:e3:46:00:63:48:9f:7e:e6:
         d9:a2:2d:3b:5a:a5:66:c2:31:91:af:5d:ad:14:b4:be:a2:c2:
         c4:61:62:f2:28:e8:07:c8:8e:6e:74:83:4e:84:d5:6d:58:c4:
         bb:49:92:83:0f:8b:de:4c:8f:04:d2:b8:86:ad:cc:04:3f:e4:
         e6:16:c3:6a:a6:be:42:54:80:b4:5a:78:84:5f:19:68:e8:46:
         28:06:2b:72:89:d0:48:57:01:d8:b6:b9:b3:89:38:d3:2a:1d:
         b5:71:77:dd:bd:b1:1f:d5:00:3b:70:1b:f8:3f:60:bd:ac:bf:
         46:2e:39:bb:38:ac:1b:db:47:a9:af:43:1b:c8:9e:2f:22:0f:
         77:64:65:11:12:e8:95:fe:21:66:8a:50:56:27:2a:a2:87:24:
         f1:07:b1:d3:3b:58:e9:21:52:d4:1e:7c:f3:aa:b4:84:4f:87:
         1b:30:80:0d:53:6a:9e:d5:9e:97:29:4a:1c:ce:b6:9c:cd:5d:
         83:39:d8:97:11:c5:d8:f0:aa:ef:43:72:c5:0b:08:c1:6f:0f:
         74:43:93:b8:af:75:6d:fe
-----BEGIN CERTIFICATE-----
MIIE9zCCAt+gAwIBAgIDEAAKMA0GCSqGSIb3DQEBBQUAMBIxEDAOBgNVBAMMB09j
ZWRvQ0EwHhcNMTgwNDEyMDkxMjE5WhcNNDUwODI3MDkxMjE5WjAbMRkwFwYDVQQD
DBBYTjU5NzNFQjUxMkNGOUZEMIICIjANBgkqhkiG9w0BAQEFAAOCAg8AMIICCgKC
AgEAnqO7V5T1ewusm7w8Sqw0odVjZNIoClz6bCiemDIICc9IJ6lVZcvKK1GigFdA
snhoPFgzyyZrFc4nnlwboviA6a/SYTaFwkrrhKxBjLMuglw3TLQwKqYwUBEcjeLH
jSJEiuhrCCAoL/F3KD1APiPv5ufzvgvkbx29wdkoVQHGxUOJCjr0kAnKcrD+kNnO
MgQE5pS6axY60ro2vCxHcZ4ZDVV19B2W3Dhzb2I1Ax5rthGaBNDZ4f4SSH3jlwcs
7p/kGgPFwjRd56FAEDGXMaISpcoUuvOsil6Fg5YPHCLwl4xBxvV/6c+03dSdYQDh
AIrJUfrMjPPYlE7OyeyCp2dyQLs7VaZF7C0IDs0uMTrDayHfqCIYXCmmiPYLXagK
ho4DHRfc4B8Mdw05dUTbtroeRQF4qA4iYAfEpBCbYZo/15W4WdleZI66S5r1kwuo
q19FJ/BEi0duKlI05FAkInckJ1wMOk5NLfrtWudnlk88Oy2R0p6pPefzV8w7lKVM
8qsG1wjhtTUGCHKdATbE7Kgh3pYSj5gMQPVLxVo3njT6GDsstGwaZ43MnHzLOCO9
VbDYoekUZWhFP0NLYCFkxROn5I3ZsIj4KLdKSxQ6USVDlH1OiqZFyCbz9W4LQNAt
h/5UaxNvNGAgh2bZLiV4DKhKR+U7crOD+WJA+f/cBSzFSb0CAwEAAaNNMEswCQYD
VR0TBAIwADAdBgNVHQ4EFgQUIG/38X8uYdrpBKdyciSbaRn2vswwHwYDVR0jBBgw
FoAUUqqKLA+h0UAnwY/NwREkbHjn5EMwDQYJKoZIhvcNAQEFBQADggIBALh1vJSl
OHrn14Jn/auQQX3QWFAxLHeJWsfKq2F3/KcXRfhn0E6bY7txhoAViluzU8Jersve
vz2/ZPYLLlaThyS4dbBHFVzK+xE7K5Wi6Z0l/nPd2/opqNykxGAlgS1sSyYEGZdj
2G/pF8Uf1tmca4txSiG5cLBGU/cYwxp4UHGowKuptWGkuTjpsDiCY1KJmi7eApFc
MUr1aNH9bYWzt+/iyNdE0VM8KyOpaL2rRwXYt0DuDHlL6OBPHSN7iEspfEtY1mj0
jKYw9B0+uAVcE928Hasa9p7iaC6ENV05aNcjAaQBfjdt020SgpOWPsBlEQEEApwJ
GEnjkR3LP4o9yTpi1TTlJSsp9y0ha3PpeTpD2orpctJreL8M6ZmmcG50ave00plR
jLexV4XjRgBjSJ9+5tmiLTtapWbCMZGvXa0UtL6iwsRhYvIo6AfIjm50g06E1W1Y
xLtJkoMPi95MjwTSuIatzAQ/5OYWw2qmvkJUgLRaeIRfGWjoRigGK3KJ0EhXAdi2
ubOJONMqHbVxd929sR/VADtwG/g/YL2sv0YuObs4rBvbR6mvQxvIni8iD3dkZRES
6JX+IWaKUFYnKqKHJPEHsdM7WOkhUtQefPOqtIRPhxswgA1Tap7VnpcpShzOtpzN
XYM52JcRxdjwqu9DcsULCMFvD3RDk7ivdW3+
-----END CERTIFICATE-----
