Certificate:
    Data:
        Version: 3 (0x2)
        Serial Number: 1048590 (0x10000e)
    Signature Algorithm: sha1WithRSAEncryption
        Issuer: CN=OcedoCA
        Validity
            Not Before: Apr 12 10:41:05 2018 GMT
            Not After : Aug 27 10:41:05 2045 GMT
        Subject: CN=XNCBB0F4950976CD
        Subject Public Key Info:
            Public Key Algorithm: rsaEncryption
                Public-Key: (4096 bit)
                Modulus:
                    00:d3:62:4d:24:c0:e7:41:22:a2:98:ee:80:57:b8:
                    b3:61:c4:04:39:09:94:86:be:02:c5:52:de:1a:e9:
                    b3:50:96:2e:2e:b8:93:e7:e2:d8:b2:fa:88:f1:19:
                    06:a7:66:6a:25:3f:9b:b2:b8:a7:7a:a5:02:80:4d:
                    70:be:77:fe:b0:f8:0e:3b:e2:b9:11:d4:d1:8d:da:
                    2c:4b:5e:ea:6e:2e:34:84:69:df:bc:73:93:d2:fb:
                    6b:16:62:de:84:a5:f9:03:78:db:23:1f:59:0d:d5:
                    ab:36:78:06:49:51:d3:25:f5:4d:4a:bb:18:69:64:
                    80:3d:b8:1f:d2:cb:ac:3a:02:4d:08:cf:9f:47:5f:
                    47:10:d1:14:3d:f1:a9:ad:db:15:3e:bc:80:af:40:
                    5b:7c:22:58:0a:3b:51:11:86:93:2b:9d:2f:02:b9:
                    ed:60:7d:b6:1f:25:f0:0c:4a:8b:33:b2:c3:86:70:
                    82:fd:7c:ee:48:fe:60:b1:9c:85:f5:38:8f:68:d5:
                    7a:d3:c7:a6:e8:2b:a7:40:97:13:6a:89:61:25:97:
                    0c:80:6f:66:ab:d4:8a:9e:7b:22:f6:3c:2f:5e:6d:
                    cd:cf:f5:5d:86:ea:e9:78:a1:f1:99:a5:69:72:32:
                    e4:19:4d:df:1c:91:f1:d8:a1:11:de:6b:4e:0c:d0:
                    ac:52:b7:77:1b:27:7d:4b:1a:82:e3:c6:4a:51:38:
                    82:ec:ad:bf:8b:24:91:39:f0:67:1e:ac:07:0c:e9:
                    ee:25:9c:22:01:ca:06:64:36:b7:82:99:fa:4c:e7:
                    c1:66:81:b7:12:9f:fc:ae:26:eb:d8:e6:dc:d5:78:
                    ad:b5:48:7b:84:71:12:c8:53:a0:8c:57:5d:dd:e4:
                    77:37:22:de:c3:de:52:31:79:88:45:d1:2a:95:49:
                    7c:29:04:74:93:04:b5:d0:ed:52:89:cd:c8:59:39:
                    75:f8:3c:f6:16:7c:2c:98:cb:93:fe:0b:ba:27:41:
                    5e:c3:06:11:3b:9d:05:59:f0:55:d8:31:98:ef:ae:
                    8c:e2:6a:b5:68:12:d4:31:d7:8a:4f:1c:f9:11:d0:
                    bb:c8:55:20:6d:ea:c0:89:5b:d7:f3:50:11:57:eb:
                    e4:f6:34:bb:94:74:22:15:c1:70:d1:67:bc:f7:3f:
                    e8:1e:a0:f8:21:71:a9:2a:fb:57:02:06:fb:0e:40:
                    8f:91:10:42:32:a6:f3:25:8f:e5:5c:f3:8f:25:8d:
                    9d:12:c7:44:b8:81:ea:a8:84:73:24:15:33:85:d1:
                    81:53:b7:bb:da:d1:dc:17:b9:ad:ee:8d:63:af:5a:
                    0c:38:ac:d3:e9:4a:aa:ee:4a:4b:ac:00:1a:04:f0:
                    93:54:f7
                Exponent: 65537 (0x10001)
        X509v3 extensions:
            X509v3 Basic Constraints: 
                CA:FALSE
            X509v3 Subject Key Identifier: 
                FA:50:C4:A4:FB:7B:F1:E9:05:2A:50:A2:FC:ED:49:D7:5C:25:2C:13
            X509v3 Authority Key Identifier: 
                keyid:52:AA:8A:2C:0F:A1:D1:40:27:C1:8F:CD:C1:11:24:6C:78:E7:E4:43

    Signature Algorithm: sha1WithRSAEncryption
         04:e2:ce:a8:0d:ed:41:d5:34:5f:b4:71:7d:3b:cb:e9:c1:bf:
         e0:f6:e6:82:16:bc:8d:7d:6d:cd:d4:b1:83:cb:67:f5:3a:47:
         b1:c8:fb:fc:9e:63:ff:fb:f6:f6:94:e2:4e:ca:dc:21:ab:8c:
         75:fb:92:26:8e:09:50:1c:46:b8:4b:5e:dc:b6:4a:16:90:92:
         51:3d:0d:d1:19:35:38:71:ee:37:b2:90:e8:13:2c:fd:cb:92:
         6f:0f:59:73:24:8f:31:36:28:27:df:53:49:2e:e3:eb:05:b2:
         93:16:9e:03:44:bd:f3:c5:cc:e4:80:83:ae:0e:f8:dd:a3:ba:
         96:63:5e:1b:3c:c1:f0:91:b9:33:fd:e1:23:f9:ea:11:ec:ed:
         3b:11:ba:5d:67:c5:03:b1:5e:d0:cd:f7:a4:27:12:46:2c:b6:
         da:f9:f5:d7:33:fe:2c:61:d1:8d:dd:7f:f2:fe:c1:cb:5a:90:
         bf:7c:e9:46:0c:d4:ef:13:c8:e1:bd:c3:da:b4:05:ac:69:d9:
         43:69:54:79:4c:ff:74:8d:b1:a8:b2:d7:33:72:7d:92:33:d5:
         1d:ad:a5:a7:5a:44:6c:f8:69:f9:49:6b:70:47:fc:28:33:99:
         60:a8:e7:5f:5b:66:f5:61:06:03:1a:52:ef:6c:89:e7:7a:0e:
         09:dc:76:62:61:ec:84:c8:07:d5:d6:d6:ae:8e:6e:a3:3a:a3:
         84:c9:fd:ef:c9:e9:a3:86:62:58:8c:63:03:87:3d:fb:22:65:
         00:a8:6c:b1:a5:21:99:85:69:1f:2b:ec:8e:09:76:bc:11:41:
         3c:2b:f9:55:7f:3c:09:1e:af:72:5e:82:df:8f:36:44:69:09:
         6f:8d:02:97:15:12:4e:1e:08:ce:66:7b:4d:c9:e7:ad:c8:78:
         5f:92:fd:6e:4d:6d:ef:0f:7e:f8:78:c1:85:a0:f4:d5:ee:96:
         34:88:76:3b:bb:bc:d1:62:6f:2c:4c:5c:66:3e:c8:a5:0f:5e:
         29:67:84:ae:5c:f0:ae:42:e0:35:12:60:fb:5f:df:e4:f4:f3:
         02:76:af:4a:81:57:6b:94:1e:14:38:3b:52:5e:f4:8b:fc:e4:
         e6:08:b8:44:31:aa:29:12:f5:10:39:f0:63:e5:62:e3:bc:47:
         6a:a4:a2:bf:a1:0a:ba:01:4a:06:e7:44:0f:8f:42:1a:69:a3:
         90:ff:48:87:23:10:63:1f:71:e8:ab:05:d1:b0:a9:59:e1:79:
         59:c7:9d:38:59:3a:49:b1:80:72:c3:8d:7e:e3:f6:05:e3:31:
         43:54:97:fd:3a:7e:5f:3d:e6:89:00:88:da:a6:4c:9e:34:42:
         6b:10:7e:e6:8b:b2:7b:57
-----BEGIN CERTIFICATE-----
MIIE9zCCAt+gAwIBAgIDEAAOMA0GCSqGSIb3DQEBBQUAMBIxEDAOBgNVBAMMB09j
ZWRvQ0EwHhcNMTgwNDEyMTA0MTA1WhcNNDUwODI3MTA0MTA1WjAbMRkwFwYDVQQD
DBBYTkNCQjBGNDk1MDk3NkNEMIICIjANBgkqhkiG9w0BAQEFAAOCAg8AMIICCgKC
AgEA02JNJMDnQSKimO6AV7izYcQEOQmUhr4CxVLeGumzUJYuLriT5+LYsvqI8RkG
p2ZqJT+bsrineqUCgE1wvnf+sPgOO+K5EdTRjdosS17qbi40hGnfvHOT0vtrFmLe
hKX5A3jbIx9ZDdWrNngGSVHTJfVNSrsYaWSAPbgf0susOgJNCM+fR19HENEUPfGp
rdsVPryAr0BbfCJYCjtREYaTK50vArntYH22HyXwDEqLM7LDhnCC/XzuSP5gsZyF
9TiPaNV608em6CunQJcTaolhJZcMgG9mq9SKnnsi9jwvXm3Nz/VdhurpeKHxmaVp
cjLkGU3fHJHx2KER3mtODNCsUrd3Gyd9SxqC48ZKUTiC7K2/iySROfBnHqwHDOnu
JZwiAcoGZDa3gpn6TOfBZoG3Ep/8ribr2Obc1XittUh7hHESyFOgjFdd3eR3NyLe
w95SMXmIRdEqlUl8KQR0kwS10O1Sic3IWTl1+Dz2FnwsmMuT/gu6J0FewwYRO50F
WfBV2DGY766M4mq1aBLUMdeKTxz5EdC7yFUgberAiVvX81ARV+vk9jS7lHQiFcFw
0We89z/oHqD4IXGpKvtXAgb7DkCPkRBCMqbzJY/lXPOPJY2dEsdEuIHqqIRzJBUz
hdGBU7e72tHcF7mt7o1jr1oMOKzT6Uqq7kpLrAAaBPCTVPcCAwEAAaNNMEswCQYD
VR0TBAIwADAdBgNVHQ4EFgQU+lDEpPt78ekFKlCi/O1J11wlLBMwHwYDVR0jBBgw
FoAUUqqKLA+h0UAnwY/NwREkbHjn5EMwDQYJKoZIhvcNAQEFBQADggIBAATizqgN
7UHVNF+0cX07y+nBv+D25oIWvI19bc3UsYPLZ/U6R7HI+/yeY//79vaU4k7K3CGr
jHX7kiaOCVAcRrhLXty2ShaQklE9DdEZNThx7jeykOgTLP3Lkm8PWXMkjzE2KCff
U0ku4+sFspMWngNEvfPFzOSAg64O+N2jupZjXhs8wfCRuTP94SP56hHs7TsRul1n
xQOxXtDN96QnEkYsttr59dcz/ixh0Y3df/L+wctakL986UYM1O8TyOG9w9q0Baxp
2UNpVHlM/3SNsaiy1zNyfZIz1R2tpadaRGz4aflJa3BH/CgzmWCo519bZvVhBgMa
Uu9sied6DgncdmJh7ITIB9XW1q6ObqM6o4TJ/e/J6aOGYliMYwOHPfsiZQCobLGl
IZmFaR8r7I4JdrwRQTwr+VV/PAker3Jegt+PNkRpCW+NApcVEk4eCM5me03J563I
eF+S/W5Nbe8Pfvh4wYWg9NXuljSIdju7vNFibyxMXGY+yKUPXilnhK5c8K5C4DUS
YPtf3+T08wJ2r0qBV2uUHhQ4O1Je9Iv85OYIuEQxqikS9RA58GPlYuO8R2qkor+h
CroBSgbnRA+PQhppo5D/SIcjEGMfceirBdGwqVnheVnHnThZOkmxgHLDjX7j9gXj
MUNUl/06fl895okAiNqmTJ40QmsQfuaLsntX
-----END CERTIFICATE-----
