Certificate:
    Data:
        Version: 3 (0x2)
        Serial Number: 1048597 (0x100015)
    Signature Algorithm: sha1WithRSAEncryption
        Issuer: CN=OcedoCA
        Validity
            Not Before: Apr 16 06:09:11 2018 GMT
            Not After : Aug 31 06:09:11 2045 GMT
        Subject: CN=XNF8A175E335E0F3
        Subject Public Key Info:
            Public Key Algorithm: rsaEncryption
                Public-Key: (4096 bit)
                Modulus:
                    00:cc:c1:5c:d8:b2:7f:a8:a0:29:d4:a6:54:36:66:
                    80:46:12:98:6e:3a:b6:71:9c:76:5c:4f:d2:aa:f6:
                    1d:9a:40:cc:f5:46:b5:36:6c:be:19:12:b1:25:d2:
                    5c:56:0c:b4:9e:69:67:d6:d5:d5:3b:db:6c:70:d2:
                    6b:a9:21:d8:e8:74:96:e1:81:f7:d3:a2:04:80:b9:
                    ca:0a:23:8f:1c:e1:72:f4:a4:21:04:01:96:cc:c2:
                    55:c5:35:8d:47:6c:c6:cc:5a:76:09:53:35:ba:fa:
                    a0:86:d9:02:71:0e:19:f2:9a:53:be:31:85:6d:1d:
                    97:dc:0a:68:d8:8c:94:ff:0f:0a:8a:96:72:87:2c:
                    9d:69:17:ab:c0:07:76:13:8a:40:c9:ae:dc:70:94:
                    ac:36:22:44:c6:f2:d4:d5:df:17:51:5a:a1:3d:dc:
                    93:cd:fd:98:90:2b:1e:75:d7:98:41:57:af:bf:30:
                    85:6b:89:92:7d:ba:fa:4d:0a:ae:8e:82:93:84:72:
                    e8:ef:8c:66:1b:b6:56:05:be:f9:b5:6e:63:b9:1f:
                    b7:d5:c0:14:87:a3:09:9d:0b:6c:57:a0:54:a4:a6:
                    2d:2e:7a:54:f8:c1:04:d7:e7:e8:ab:ee:cf:65:78:
                    1b:33:e6:7d:2f:a7:06:df:c2:f6:c5:87:ff:b5:d5:
                    7e:6b:1f:48:a4:8a:9e:c1:ec:97:9b:10:fc:3e:72:
                    7c:9a:58:f2:12:44:d4:8f:65:cb:8d:0a:c3:d9:33:
                    d8:c7:58:b9:0c:d6:c2:c9:4a:e5:d4:7b:fb:60:a9:
                    b0:d0:0a:c0:34:f0:d1:65:e1:68:59:8d:48:74:0a:
                    21:cf:9c:50:82:5b:85:d0:f0:be:1a:f9:3f:55:cc:
                    39:d3:de:1a:3b:af:a5:35:b9:62:e5:75:e4:cf:42:
                    64:c7:07:ab:5a:e3:aa:f0:0d:6c:68:02:3c:89:b6:
                    84:64:47:68:2c:15:84:94:92:23:47:43:17:bf:94:
                    14:f9:92:de:ad:2c:eb:76:04:23:5f:d6:07:f1:ba:
                    c0:2f:8a:48:1b:59:79:57:dc:02:af:8f:0d:9a:d3:
                    a9:11:b8:62:c4:72:1a:8a:51:3c:79:6e:be:3c:e7:
                    c2:bb:4e:c8:70:41:ea:d9:84:b3:04:3c:53:22:3f:
                    18:cf:97:9f:ce:70:17:1e:10:6a:77:cc:1e:81:20:
                    bb:96:18:4f:14:01:3c:44:95:5e:0a:16:6a:df:67:
                    52:b2:2f:4e:3e:8d:9a:4d:78:cb:66:75:e8:b2:e0:
                    45:2c:5c:e1:36:00:b8:af:41:db:d4:54:a4:27:8d:
                    4d:27:02:fd:43:9b:8b:00:fa:57:fb:69:cb:19:75:
                    c9:cc:3b
                Exponent: 65537 (0x10001)
        X509v3 extensions:
            X509v3 Basic Constraints: 
                CA:FALSE
            X509v3 Subject Key Identifier: 
                8A:E1:E7:BA:CD:27:89:79:3E:6F:D1:1E:87:05:FF:D6:24:05:A9:5F
            X509v3 Authority Key Identifier: 
                keyid:52:AA:8A:2C:0F:A1:D1:40:27:C1:8F:CD:C1:11:24:6C:78:E7:E4:43

    Signature Algorithm: sha1WithRSAEncryption
         15:5f:11:da:b2:86:91:95:0a:0a:26:82:10:02:eb:af:56:09:
         b3:6e:7d:13:50:69:9e:3a:97:59:eb:ab:af:58:46:c6:2f:7d:
         ef:9a:7c:49:78:38:b3:82:1a:39:38:9a:a3:87:e7:04:84:d7:
         f8:ca:99:bf:4e:8d:f6:27:32:56:6a:18:bc:a2:1c:68:20:7d:
         aa:00:98:c1:e1:ff:7e:e6:08:fe:92:c1:be:7b:25:91:a2:11:
         22:d5:03:13:7e:9d:70:1b:b5:db:1a:2d:58:9c:f6:97:ac:b0:
         93:c4:66:e4:c7:fe:05:a1:80:21:32:b0:d6:cf:dc:f0:25:70:
         a8:03:43:f2:bd:71:bc:c1:0b:fd:b7:8e:27:7b:a1:a0:48:9d:
         6f:ae:8f:4b:87:c5:1a:68:81:e3:a1:d1:c7:13:59:20:0e:6b:
         68:3e:1b:6e:2f:6a:f6:6b:32:4d:43:ed:0a:62:41:07:9f:96:
         cc:95:06:d6:6a:85:35:4d:2f:ca:b2:bf:c3:ea:95:7e:7c:fb:
         86:e2:16:d8:9f:16:cb:06:61:55:6c:f3:de:ef:c2:ad:e3:50:
         8b:af:44:34:eb:cd:5f:d1:f7:78:54:57:35:f5:f1:1e:0b:5e:
         b5:6b:ce:80:6a:38:08:85:b9:e5:34:34:d3:c3:c2:27:58:aa:
         14:02:57:df:27:13:4d:60:a4:c4:9e:9d:11:f5:4c:f7:13:24:
         1b:4e:09:33:ef:03:d9:8e:d1:39:73:dd:a3:38:71:d6:d5:23:
         d4:d7:03:90:ab:42:42:3e:9a:cf:d2:0b:57:19:92:55:fc:92:
         9c:39:2f:c3:4b:9e:43:df:4e:a0:c1:38:fe:35:25:80:d5:20:
         7b:bc:b7:cf:97:81:2f:60:8d:92:75:0f:83:c4:9a:a0:db:4d:
         ce:59:c8:82:1f:df:bc:4f:a3:e5:4d:f5:b0:56:73:bd:31:62:
         5d:bd:ab:bc:88:9a:2a:9a:b1:d3:8e:ae:bc:15:76:a7:98:af:
         e1:ae:f9:64:92:08:65:01:8f:0d:f4:c5:df:5c:5b:14:a2:7b:
         49:fa:42:30:49:dc:22:4c:53:63:c9:8d:06:c0:20:88:b3:d3:
         48:7e:9e:2c:3c:5e:72:c7:4d:c9:22:a7:1b:76:45:11:d3:bd:
         2d:7a:2f:1d:81:40:17:bc:55:bf:23:14:1d:01:ee:a1:85:0c:
         69:4e:f4:fc:16:b7:ec:67:65:75:f5:d4:5a:e8:b8:1b:f6:e7:
         cd:49:b6:e0:bc:66:a8:80:40:e5:57:cd:5b:95:c6:4a:4a:33:
         69:69:a6:43:10:18:7c:b0:22:dd:5b:54:c0:ab:64:75:58:7a:
         35:7e:26:f6:b9:51:26:4c
-----BEGIN CERTIFICATE-----
MIIE9zCCAt+gAwIBAgIDEAAVMA0GCSqGSIb3DQEBBQUAMBIxEDAOBgNVBAMMB09j
ZWRvQ0EwHhcNMTgwNDE2MDYwOTExWhcNNDUwODMxMDYwOTExWjAbMRkwFwYDVQQD
DBBYTkY4QTE3NUUzMzVFMEYzMIICIjANBgkqhkiG9w0BAQEFAAOCAg8AMIICCgKC
AgEAzMFc2LJ/qKAp1KZUNmaARhKYbjq2cZx2XE/SqvYdmkDM9Ua1Nmy+GRKxJdJc
Vgy0nmln1tXVO9tscNJrqSHY6HSW4YH306IEgLnKCiOPHOFy9KQhBAGWzMJVxTWN
R2zGzFp2CVM1uvqghtkCcQ4Z8ppTvjGFbR2X3Apo2IyU/w8KipZyhyydaRerwAd2
E4pAya7ccJSsNiJExvLU1d8XUVqhPdyTzf2YkCseddeYQVevvzCFa4mSfbr6TQqu
joKThHLo74xmG7ZWBb75tW5juR+31cAUh6MJnQtsV6BUpKYtLnpU+MEE1+foq+7P
ZXgbM+Z9L6cG38L2xYf/tdV+ax9IpIqeweyXmxD8PnJ8mljyEkTUj2XLjQrD2TPY
x1i5DNbCyUrl1Hv7YKmw0ArANPDRZeFoWY1IdAohz5xQgluF0PC+Gvk/Vcw5094a
O6+lNbli5XXkz0JkxwerWuOq8A1saAI8ibaEZEdoLBWElJIjR0MXv5QU+ZLerSzr
dgQjX9YH8brAL4pIG1l5V9wCr48NmtOpEbhixHIailE8eW6+POfCu07IcEHq2YSz
BDxTIj8Yz5efznAXHhBqd8wegSC7lhhPFAE8RJVeChZq32dSsi9OPo2aTXjLZnXo
suBFLFzhNgC4r0Hb1FSkJ41NJwL9Q5uLAPpX+2nLGXXJzDsCAwEAAaNNMEswCQYD
VR0TBAIwADAdBgNVHQ4EFgQUiuHnus0niXk+b9EehwX/1iQFqV8wHwYDVR0jBBgw
FoAUUqqKLA+h0UAnwY/NwREkbHjn5EMwDQYJKoZIhvcNAQEFBQADggIBABVfEdqy
hpGVCgomghAC669WCbNufRNQaZ46l1nrq69YRsYvfe+afEl4OLOCGjk4mqOH5wSE
1/jKmb9OjfYnMlZqGLyiHGggfaoAmMHh/37mCP6Swb57JZGiESLVAxN+nXAbtdsa
LVic9pessJPEZuTH/gWhgCEysNbP3PAlcKgDQ/K9cbzBC/23jid7oaBInW+uj0uH
xRpogeOh0ccTWSAOa2g+G24vavZrMk1D7QpiQQeflsyVBtZqhTVNL8qyv8PqlX58
+4biFtifFssGYVVs897vwq3jUIuvRDTrzV/R93hUVzX18R4LXrVrzoBqOAiFueU0
NNPDwidYqhQCV98nE01gpMSenRH1TPcTJBtOCTPvA9mO0Tlz3aM4cdbVI9TXA5Cr
QkI+ms/SC1cZklX8kpw5L8NLnkPfTqDBOP41JYDVIHu8t8+XgS9gjZJ1D4PEmqDb
Tc5ZyIIf37xPo+VN9bBWc70xYl29q7yImiqasdOOrrwVdqeYr+Gu+WSSCGUBjw30
xd9cWxSie0n6QjBJ3CJMU2PJjQbAIIiz00h+niw8XnLHTckipxt2RRHTvS16Lx2B
QBe8Vb8jFB0B7qGFDGlO9PwWt+xnZXX11FrouBv2581JtuC8ZqiAQOVXzVuVxkpK
M2lppkMQGHywIt1bVMCrZHVYejV+Jva5USZM
-----END CERTIFICATE-----
