Certificate:
    Data:
        Version: 3 (0x2)
        Serial Number: 1048601 (0x100019)
    Signature Algorithm: sha1WithRSAEncryption
        Issuer: CN=OcedoCA
        Validity
            Not Before: Apr 16 08:45:26 2018 GMT
            Not After : Aug 31 08:45:26 2045 GMT
        Subject: CN=XN17A339D5A96479
        Subject Public Key Info:
            Public Key Algorithm: rsaEncryption
                Public-Key: (4096 bit)
                Modulus:
                    00:db:94:7a:a5:88:99:86:00:2e:89:53:24:88:cc:
                    89:8c:1a:49:7d:24:1c:60:ea:72:61:ec:be:0a:8b:
                    e3:0a:62:18:3a:a2:f5:ba:74:7b:63:5a:80:19:bf:
                    1f:87:65:a3:7c:b8:8b:e2:90:79:1f:a4:3c:50:79:
                    81:bb:c5:dc:cb:75:54:1d:e5:b6:de:d5:d7:8a:3f:
                    a4:02:b4:2e:eb:e3:49:1c:00:62:6e:03:68:2c:36:
                    68:4f:d4:e0:86:28:94:5e:f7:65:36:55:b0:c2:34:
                    a2:37:9f:33:35:67:e8:e3:60:27:97:3a:0b:70:d2:
                    1d:ad:ec:65:de:36:90:4d:24:e7:36:93:ec:86:5d:
                    57:b6:9c:1d:6f:fd:09:8d:ea:43:04:91:96:d6:ae:
                    9c:41:2e:df:39:36:19:4b:dd:bf:06:46:94:24:30:
                    b1:ce:b1:1e:a8:df:a0:4f:8c:e6:5d:74:09:00:f9:
                    e8:cc:49:64:83:67:58:de:a8:18:5d:54:28:58:83:
                    fc:68:9a:f7:46:9d:8a:79:ff:50:9f:de:81:6b:aa:
                    46:b6:85:dc:f8:9b:23:2c:3f:cf:5e:f2:ee:03:1b:
                    8d:40:38:f2:80:c3:ef:14:8d:d2:35:9d:74:aa:ff:
                    87:b6:14:42:f6:4e:84:a8:54:07:1a:ac:76:60:da:
                    f6:cc:74:a1:b7:40:96:8c:db:6b:95:2a:f1:d7:e1:
                    9d:85:2c:c7:e1:55:e9:3e:0f:2b:e0:45:e6:d8:82:
                    a8:5d:c2:38:c2:d2:bc:4b:ce:0d:28:ff:f5:f0:b4:
                    f5:cf:63:f7:af:ca:a9:d8:62:24:d0:02:35:60:a4:
                    23:5e:5f:b1:df:9e:33:41:2a:bf:7d:ce:8c:d6:07:
                    15:b2:20:2c:6b:0e:19:4c:2f:f9:15:c1:cb:8b:ab:
                    82:9d:5d:31:87:53:6b:20:ac:70:e3:d8:0a:3a:8d:
                    37:6b:b1:3d:93:7b:11:20:cd:d3:af:b1:c8:62:13:
                    e4:b4:a6:ee:aa:c6:fd:33:8a:c7:8a:41:db:53:a0:
                    cc:8e:92:86:b2:23:c0:b1:06:c8:53:63:39:3e:05:
                    d0:33:ac:69:c3:e2:15:d7:38:1e:76:60:6c:77:5d:
                    b4:b2:c4:4a:b3:44:ec:67:41:e1:ef:33:b6:b0:8f:
                    b8:80:1a:21:24:30:c3:74:bd:18:ff:03:49:b6:22:
                    e2:18:e3:1c:a5:c5:ef:05:2a:38:a9:7c:f2:06:97:
                    0d:11:b9:d9:de:d5:ae:e0:5d:e8:7e:8d:bc:73:2f:
                    99:26:02:ea:91:bb:e6:b6:6f:7f:06:c0:ef:8d:3a:
                    bc:f4:72:37:6f:4d:f6:e8:ea:c1:1f:16:bf:b4:f3:
                    75:d0:23
                Exponent: 65537 (0x10001)
        X509v3 extensions:
            X509v3 Basic Constraints: 
                CA:FALSE
            X509v3 Subject Key Identifier: 
                62:4E:B7:53:C8:0D:E0:B9:97:9E:5B:9E:F5:1B:A1:DA:68:D5:27:AF
            X509v3 Authority Key Identifier: 
                keyid:52:AA:8A:2C:0F:A1:D1:40:27:C1:8F:CD:C1:11:24:6C:78:E7:E4:43

    Signature Algorithm: sha1WithRSAEncryption
         00:8b:51:1f:74:d4:5d:6d:82:30:f9:cb:41:9e:93:7f:37:98:
         49:fa:f2:9a:0d:6d:da:47:aa:40:53:e7:34:fe:47:91:6e:fa:
         be:95:bd:ec:65:bc:65:1b:2a:13:32:15:ae:28:ca:40:ba:4d:
         f3:e5:8b:6f:36:cd:43:ce:a3:01:44:b0:2e:89:42:a5:bd:6f:
         aa:a8:7c:74:b3:55:a0:27:df:7b:e5:a2:d5:24:fe:6f:e5:c8:
         21:1b:a3:79:e1:c5:8d:34:85:d7:fa:08:50:f5:8c:b1:83:f6:
         bb:90:a6:d4:e4:6e:1c:25:f4:8e:57:5c:60:0c:ef:89:b1:0e:
         78:da:04:95:a6:9a:1c:43:1c:1c:fb:8e:0f:55:5e:e2:89:c2:
         e0:51:44:1f:16:7a:34:91:40:67:2d:ba:fe:54:d9:e6:5d:92:
         68:dc:f8:22:2b:aa:c5:29:a3:ce:8a:ef:25:21:2b:03:5f:30:
         a9:01:ba:30:90:89:76:ad:d9:dc:b9:03:a3:85:95:92:f7:b1:
         11:13:47:00:95:12:e6:57:57:a8:93:ff:89:e5:61:64:ad:8a:
         e8:11:e9:86:e4:c0:e5:e4:5c:a1:01:a7:95:a8:84:5f:f3:f2:
         c8:e1:df:a9:47:1c:68:86:9f:85:8b:1d:13:66:6b:c4:f9:1c:
         9f:9f:47:a4:bf:3b:02:1c:0b:9d:0e:8b:df:95:0a:e3:4d:24:
         a3:42:32:db:4a:81:90:02:ad:4f:bf:b4:df:41:07:64:14:68:
         b0:9f:4a:e0:81:75:90:98:6c:89:e1:4f:d3:23:5d:32:76:55:
         24:50:13:97:ed:20:b5:4b:70:a1:8d:9e:79:08:e8:31:27:4a:
         a3:e4:83:8d:ac:38:05:e4:d3:7b:59:ae:8d:86:31:64:ea:fb:
         ce:a8:8e:28:fa:9e:54:c3:98:5d:e9:63:a4:17:9a:a0:0c:0e:
         ef:aa:b1:8c:31:6b:87:a3:6a:25:bf:de:48:47:75:f6:e3:bc:
         7a:0a:7c:f5:ac:32:43:c2:e5:6e:6a:ad:b3:e6:b5:6f:ff:4a:
         86:fd:82:a2:f0:bc:85:71:fc:20:e2:1a:8a:b5:47:64:26:eb:
         96:fb:1e:f2:b8:81:12:c0:a5:ff:ba:94:c4:05:5b:8c:10:c8:
         27:62:96:f6:84:06:7a:79:ff:91:32:eb:88:4f:d0:4d:b3:ff:
         01:10:f4:1c:29:8e:8f:f9:bb:1b:01:24:51:7b:a6:04:36:f4:
         5d:f5:d2:69:ab:5c:fa:06:ab:14:8c:a8:1c:b3:b7:aa:46:76:
         30:c5:0e:b6:58:e1:5c:97:e9:9b:d1:e6:77:30:88:f2:0f:52:
         e4:9e:33:0c:d0:b8:11:a6
-----BEGIN CERTIFICATE-----
MIIE9zCCAt+gAwIBAgIDEAAZMA0GCSqGSIb3DQEBBQUAMBIxEDAOBgNVBAMMB09j
ZWRvQ0EwHhcNMTgwNDE2MDg0NTI2WhcNNDUwODMxMDg0NTI2WjAbMRkwFwYDVQQD
DBBYTjE3QTMzOUQ1QTk2NDc5MIICIjANBgkqhkiG9w0BAQEFAAOCAg8AMIICCgKC
AgEA25R6pYiZhgAuiVMkiMyJjBpJfSQcYOpyYey+CovjCmIYOqL1unR7Y1qAGb8f
h2WjfLiL4pB5H6Q8UHmBu8Xcy3VUHeW23tXXij+kArQu6+NJHABibgNoLDZoT9Tg
hiiUXvdlNlWwwjSiN58zNWfo42AnlzoLcNIdrexl3jaQTSTnNpPshl1Xtpwdb/0J
jepDBJGW1q6cQS7fOTYZS92/BkaUJDCxzrEeqN+gT4zmXXQJAPnozElkg2dY3qgY
XVQoWIP8aJr3Rp2Kef9Qn96Ba6pGtoXc+JsjLD/PXvLuAxuNQDjygMPvFI3SNZ10
qv+HthRC9k6EqFQHGqx2YNr2zHSht0CWjNtrlSrx1+GdhSzH4VXpPg8r4EXm2IKo
XcI4wtK8S84NKP/18LT1z2P3r8qp2GIk0AI1YKQjXl+x354zQSq/fc6M1gcVsiAs
aw4ZTC/5FcHLi6uCnV0xh1NrIKxw49gKOo03a7E9k3sRIM3Tr7HIYhPktKbuqsb9
M4rHikHbU6DMjpKGsiPAsQbIU2M5PgXQM6xpw+IV1zgedmBsd120ssRKs0TsZ0Hh
7zO2sI+4gBohJDDDdL0Y/wNJtiLiGOMcpcXvBSo4qXzyBpcNEbnZ3tWu4F3ofo28
cy+ZJgLqkbvmtm9/BsDvjTq89HI3b0326OrBHxa/tPN10CMCAwEAAaNNMEswCQYD
VR0TBAIwADAdBgNVHQ4EFgQUYk63U8gN4LmXnlue9Ruh2mjVJ68wHwYDVR0jBBgw
FoAUUqqKLA+h0UAnwY/NwREkbHjn5EMwDQYJKoZIhvcNAQEFBQADggIBAACLUR90
1F1tgjD5y0Gek383mEn68poNbdpHqkBT5zT+R5Fu+r6VvexlvGUbKhMyFa4oykC6
TfPli282zUPOowFEsC6JQqW9b6qofHSzVaAn33vlotUk/m/lyCEbo3nhxY00hdf6
CFD1jLGD9ruQptTkbhwl9I5XXGAM74mxDnjaBJWmmhxDHBz7jg9VXuKJwuBRRB8W
ejSRQGctuv5U2eZdkmjc+CIrqsUpo86K7yUhKwNfMKkBujCQiXat2dy5A6OFlZL3
sRETRwCVEuZXV6iT/4nlYWStiugR6YbkwOXkXKEBp5WohF/z8sjh36lHHGiGn4WL
HRNma8T5HJ+fR6S/OwIcC50Oi9+VCuNNJKNCMttKgZACrU+/tN9BB2QUaLCfSuCB
dZCYbInhT9MjXTJ2VSRQE5ftILVLcKGNnnkI6DEnSqPkg42sOAXk03tZro2GMWTq
+86ojij6nlTDmF3pY6QXmqAMDu+qsYwxa4ejaiW/3khHdfbjvHoKfPWsMkPC5W5q
rbPmtW//Sob9gqLwvIVx/CDiGoq1R2Qm65b7HvK4gRLApf+6lMQFW4wQyCdilvaE
Bnp5/5Ey64hP0E2z/wEQ9Bwpjo/5uxsBJFF7pgQ29F310mmrXPoGqxSMqByzt6pG
djDFDrZY4VyX6ZvR5ncwiPIPUuSeMwzQuBGm
-----END CERTIFICATE-----
