Certificate:
    Data:
        Version: 3 (0x2)
        Serial Number: 1048592 (0x100010)
    Signature Algorithm: sha1WithRSAEncryption
        Issuer: CN=OcedoCA
        Validity
            Not Before: Apr 12 11:29:59 2018 GMT
            Not After : Aug 27 11:29:59 2045 GMT
        Subject: CN=XN5828791AE49F35
        Subject Public Key Info:
            Public Key Algorithm: rsaEncryption
                Public-Key: (4096 bit)
                Modulus:
                    00:be:f7:63:ee:28:05:3b:76:9b:db:ef:60:52:30:
                    35:3a:0a:5f:5b:7a:51:aa:8c:77:f5:64:01:fa:d3:
                    ea:d2:cc:3d:77:14:8e:72:30:03:95:65:1d:8f:60:
                    65:8f:32:cc:3b:25:07:f5:d7:87:bf:de:be:a0:ff:
                    f2:7b:76:01:04:96:4d:8e:3b:0d:36:e2:b4:e4:af:
                    79:9f:0b:03:db:9d:ba:ef:29:9a:51:6b:ee:0d:39:
                    39:b6:1f:70:e6:f9:6f:5a:f7:79:10:dd:0b:fe:f7:
                    bd:ca:23:20:45:e2:cb:0c:b2:4b:11:49:08:6d:7a:
                    29:a7:27:b0:75:6d:e9:57:61:37:82:7e:50:d8:8c:
                    f1:a9:1c:64:ff:6e:25:9f:c4:b8:12:34:7d:a6:d2:
                    d4:d7:f4:0e:9b:31:e2:28:90:74:53:1d:88:ea:3e:
                    5f:a8:11:b9:b3:f4:08:68:9d:a8:ce:a1:c6:6e:71:
                    0a:78:ed:7f:6a:4d:4b:be:af:2c:5e:e5:7f:a8:db:
                    19:15:32:69:8f:d2:16:c4:92:5c:2c:13:9b:16:7e:
                    81:a2:4a:7d:12:2b:cd:a0:e6:8d:60:29:d7:b4:d7:
                    00:f7:0c:18:31:8c:d5:8f:1a:f7:7f:4b:4f:fa:d1:
                    0b:94:aa:72:91:0c:81:91:c2:2d:30:56:33:42:8a:
                    7e:b3:a5:c9:b3:3f:71:42:1d:20:be:c0:5f:c3:39:
                    9e:6b:d3:ce:34:0a:96:61:71:30:b4:bf:18:28:d7:
                    cd:77:9f:0f:6e:0a:f9:db:79:d1:0a:ee:cd:40:37:
                    0d:f3:c7:f3:a7:ab:e9:15:9b:b3:73:da:38:88:a5:
                    88:d8:18:19:ae:e3:87:c0:80:af:53:65:a5:e0:08:
                    91:bf:10:c5:1e:b2:4e:a6:85:13:34:46:34:0d:99:
                    87:0b:bb:e7:5e:91:f8:aa:51:e4:3c:ff:19:53:0a:
                    80:fc:00:83:94:d6:f6:3f:ab:5c:3a:b4:ad:70:25:
                    62:cd:12:6b:46:a5:d5:c5:60:a4:a6:0e:bd:aa:30:
                    25:79:9a:17:af:82:72:1e:32:4e:26:29:bc:55:d3:
                    dd:9f:fa:fd:02:26:87:05:33:ef:f4:0a:f6:05:b7:
                    30:e6:15:9e:f5:a1:bf:ba:b8:aa:46:5f:b9:75:d4:
                    59:26:7a:49:4f:df:d1:8a:52:5f:b5:c8:85:c8:27:
                    26:a7:94:5e:d4:a8:48:32:88:97:3b:4d:a8:cf:68:
                    5b:bf:71:25:00:61:f1:bf:35:f0:ba:8a:c3:13:17:
                    35:57:ef:b5:5e:44:42:45:d9:7f:5d:1a:af:a4:82:
                    5f:9e:85:6c:fc:f0:4b:a9:73:e4:6a:9e:7f:48:c5:
                    82:c3:cb
                Exponent: 65537 (0x10001)
        X509v3 extensions:
            X509v3 Basic Constraints: 
                CA:FALSE
            X509v3 Subject Key Identifier: 
                07:B7:98:2B:FE:D2:11:08:F7:E0:89:7C:76:27:07:C2:EE:1F:7E:B2
            X509v3 Authority Key Identifier: 
                keyid:52:AA:8A:2C:0F:A1:D1:40:27:C1:8F:CD:C1:11:24:6C:78:E7:E4:43

    Signature Algorithm: sha1WithRSAEncryption
         56:7f:e6:0b:9c:14:7d:7e:9e:30:f3:eb:7c:9e:27:26:9a:35:
         9d:04:3d:39:1e:ff:c8:33:f6:e4:7f:07:75:d7:9c:18:48:fa:
         dd:33:c8:8d:92:26:d1:84:f1:23:13:5d:45:14:43:21:15:64:
         d0:4c:f7:26:1c:e7:bd:2a:d7:78:83:b5:d9:38:45:7e:9c:f4:
         cb:a0:b8:94:8d:e4:51:bb:6a:28:a6:5b:c5:20:d9:a6:2b:00:
         0f:ae:4c:b0:be:c5:fc:19:ca:3a:32:a1:7e:68:46:de:59:0e:
         8b:5d:25:d2:f4:80:92:8c:1b:62:a7:fd:20:7c:c5:33:aa:1c:
         57:36:84:48:69:f4:97:11:23:d0:45:32:6d:b0:bb:d4:34:b2:
         81:2b:c7:f9:30:35:ed:db:33:20:c1:f2:db:9b:9a:5c:4e:07:
         8c:0a:06:d0:0f:24:47:53:e7:12:bf:25:f5:69:27:99:52:7e:
         be:eb:af:7e:81:45:92:c2:c9:3c:22:11:be:eb:5b:7c:84:3d:
         4d:be:0c:9f:e1:ef:0b:38:c4:5a:c5:b5:44:15:6f:0c:c1:af:
         45:3f:74:c7:b8:74:ad:2d:38:87:29:5b:bc:ae:e2:35:f8:e7:
         55:58:ec:5f:79:cb:e5:a1:69:3d:c8:a1:c5:29:ea:63:19:1d:
         66:cc:38:e7:db:c3:a0:2d:ea:fc:8c:d5:7a:bd:18:e9:79:33:
         52:de:05:96:af:c3:e2:88:13:ab:51:19:59:b7:51:9d:6d:bb:
         8d:0b:50:2d:75:8e:74:fa:34:d8:eb:15:a7:d3:9d:fb:0e:7c:
         0b:81:4d:39:9c:7e:02:e4:c6:bd:c5:6b:5d:5a:6c:4e:9d:b5:
         33:b9:22:b2:d4:cb:5d:87:90:77:29:79:27:ce:c6:88:28:31:
         31:54:12:03:62:d4:02:52:a4:d7:b3:f2:de:95:17:92:d4:b1:
         f2:f1:8e:4d:80:52:c9:2f:76:fa:a8:45:de:fd:be:ca:dd:e9:
         7f:b0:8b:1d:a7:11:d3:af:e1:7a:35:11:3d:e1:24:c7:82:b0:
         3e:d0:76:ec:b7:5a:37:d7:92:3b:8f:2f:ce:3e:c3:2f:ae:3a:
         ff:b7:32:dd:aa:50:2c:63:45:15:5b:6b:f5:06:9c:4e:47:b9:
         f3:87:71:a4:bf:db:e4:12:5f:5e:c4:f8:66:06:07:81:2d:d4:
         8b:7f:94:19:2c:33:e5:82:d6:d3:38:70:30:94:ee:01:77:6c:
         83:77:a0:7e:84:d4:f0:7a:8e:9e:34:45:21:c2:53:bb:4c:65:
         9f:40:8e:22:67:09:0d:44:8c:8d:3f:e3:1c:ba:2e:9f:40:52:
         ff:32:18:a7:be:ce:d8:89
-----BEGIN CERTIFICATE-----
MIIE9zCCAt+gAwIBAgIDEAAQMA0GCSqGSIb3DQEBBQUAMBIxEDAOBgNVBAMMB09j
ZWRvQ0EwHhcNMTgwNDEyMTEyOTU5WhcNNDUwODI3MTEyOTU5WjAbMRkwFwYDVQQD
DBBYTjU4Mjg3OTFBRTQ5RjM1MIICIjANBgkqhkiG9w0BAQEFAAOCAg8AMIICCgKC
AgEAvvdj7igFO3ab2+9gUjA1OgpfW3pRqox39WQB+tPq0sw9dxSOcjADlWUdj2Bl
jzLMOyUH9deHv96+oP/ye3YBBJZNjjsNNuK05K95nwsD25267ymaUWvuDTk5th9w
5vlvWvd5EN0L/ve9yiMgReLLDLJLEUkIbXoppyewdW3pV2E3gn5Q2IzxqRxk/24l
n8S4EjR9ptLU1/QOmzHiKJB0Ux2I6j5fqBG5s/QIaJ2ozqHGbnEKeO1/ak1Lvq8s
XuV/qNsZFTJpj9IWxJJcLBObFn6Bokp9EivNoOaNYCnXtNcA9wwYMYzVjxr3f0tP
+tELlKpykQyBkcItMFYzQop+s6XJsz9xQh0gvsBfwzmea9PONAqWYXEwtL8YKNfN
d58Pbgr523nRCu7NQDcN88fzp6vpFZuzc9o4iKWI2BgZruOHwICvU2Wl4AiRvxDF
HrJOpoUTNEY0DZmHC7vnXpH4qlHkPP8ZUwqA/ACDlNb2P6tcOrStcCVizRJrRqXV
xWCkpg69qjAleZoXr4JyHjJOJim8VdPdn/r9AiaHBTPv9Ar2Bbcw5hWe9aG/uriq
Rl+5ddRZJnpJT9/RilJftciFyCcmp5Re1KhIMoiXO02oz2hbv3ElAGHxvzXwuorD
Exc1V++1XkRCRdl/XRqvpIJfnoVs/PBLqXPkap5/SMWCw8sCAwEAAaNNMEswCQYD
VR0TBAIwADAdBgNVHQ4EFgQUB7eYK/7SEQj34Il8dicHwu4ffrIwHwYDVR0jBBgw
FoAUUqqKLA+h0UAnwY/NwREkbHjn5EMwDQYJKoZIhvcNAQEFBQADggIBAFZ/5guc
FH1+njDz63yeJyaaNZ0EPTke/8gz9uR/B3XXnBhI+t0zyI2SJtGE8SMTXUUUQyEV
ZNBM9yYc570q13iDtdk4RX6c9MuguJSN5FG7aiimW8Ug2aYrAA+uTLC+xfwZyjoy
oX5oRt5ZDotdJdL0gJKMG2Kn/SB8xTOqHFc2hEhp9JcRI9BFMm2wu9Q0soErx/kw
Ne3bMyDB8tubmlxOB4wKBtAPJEdT5xK/JfVpJ5lSfr7rr36BRZLCyTwiEb7rW3yE
PU2+DJ/h7ws4xFrFtUQVbwzBr0U/dMe4dK0tOIcpW7yu4jX451VY7F95y+WhaT3I
ocUp6mMZHWbMOOfbw6At6vyM1Xq9GOl5M1LeBZavw+KIE6tRGVm3UZ1tu40LUC11
jnT6NNjrFafTnfsOfAuBTTmcfgLkxr3Fa11abE6dtTO5IrLUy12HkHcpeSfOxogo
MTFUEgNi1AJSpNez8t6VF5LUsfLxjk2AUskvdvqoRd79vsrd6X+wix2nEdOv4Xo1
ET3hJMeCsD7Qduy3WjfXkjuPL84+wy+uOv+3Mt2qUCxjRRVba/UGnE5HufOHcaS/
2+QSX17E+GYGB4Et1It/lBksM+WC1tM4cDCU7gF3bIN3oH6E1PB6jp40RSHCU7tM
ZZ9AjiJnCQ1EjI0/4xy6Lp9AUv8yGKe+ztiJ
-----END CERTIFICATE-----
