Certificate:
    Data:
        Version: 3 (0x2)
        Serial Number: 1048579 (0x100003)
    Signature Algorithm: sha1WithRSAEncryption
        Issuer: CN=OcedoCA
        Validity
            Not Before: Mar  9 06:31:58 2018 GMT
            Not After : Jul 24 06:31:58 2045 GMT
        Subject: CN=msg-sys.riverbed.cc
        Subject Public Key Info:
            Public Key Algorithm: rsaEncryption
                Public-Key: (4096 bit)
                Modulus:
                    00:a3:e1:e4:7f:97:64:9a:3e:1e:15:69:59:fe:49:
                    f5:87:d7:3b:45:b4:12:fd:b1:d5:e3:25:c9:69:f7:
                    53:f2:b4:62:14:91:13:4b:09:24:f0:c1:bf:82:8d:
                    4f:bb:f9:fc:92:94:28:ec:e8:24:62:49:48:e5:dd:
                    f7:1e:e5:d3:3f:c4:4f:74:ac:b1:7c:e9:49:39:ca:
                    f2:8d:09:55:d8:63:66:a3:68:82:51:56:da:6f:fa:
                    36:33:36:08:3a:70:e3:f9:08:f0:c5:ee:2c:85:24:
                    fe:1a:05:21:e7:70:7a:2b:03:2e:62:7f:32:f5:47:
                    cd:4e:5a:7b:b7:6f:96:43:72:17:f6:f3:c6:07:ff:
                    08:0e:e4:ba:28:f3:5f:ee:1f:ae:7b:21:b0:bc:e5:
                    44:2e:06:15:12:c5:41:6b:0c:eb:8c:fe:b9:ed:63:
                    e9:25:bb:5a:11:c4:3d:5c:50:f8:9c:a6:ed:43:7b:
                    c8:a3:1e:4e:49:84:0e:57:f1:bc:0d:fc:1e:3a:fa:
                    bc:aa:dd:36:eb:5d:38:43:e8:dd:03:de:35:a0:35:
                    20:a9:77:1a:24:a3:56:56:e5:be:84:56:0b:68:71:
                    cf:fa:d8:fc:f9:85:a1:b9:c6:f1:48:28:86:65:d8:
                    91:e0:ec:98:2f:60:de:0f:18:fa:ff:51:69:c0:fb:
                    72:07:92:70:81:26:ac:7c:6e:2d:ee:6e:fa:bd:a4:
                    f2:8f:1c:81:d5:f3:2c:4a:e2:8c:9e:bb:85:87:4e:
                    83:f4:94:7e:74:ec:03:43:54:ad:58:81:28:d6:42:
                    e7:ad:86:32:0f:2a:7c:3d:0b:a5:4b:55:1d:7e:dc:
                    5b:9d:b8:5b:95:6a:1c:a0:d9:08:8f:e6:f9:1c:e3:
                    7c:37:5d:d6:4c:35:08:92:50:5e:3f:37:f6:30:08:
                    90:2e:d2:f8:2e:bb:6a:e5:ba:3e:15:a4:09:33:e3:
                    39:fd:7f:01:29:98:82:e8:e6:c3:54:46:20:c6:3b:
                    1c:0f:2d:0b:e8:3b:b1:c5:ff:16:9c:31:12:ee:28:
                    aa:bf:c2:db:5d:fd:ad:52:ac:fe:2f:45:99:66:5f:
                    e4:2f:e3:1a:d0:08:17:6e:14:a1:b2:8c:85:84:00:
                    5b:bd:2f:0f:74:fd:d8:d7:eb:46:62:55:73:98:cd:
                    fa:d8:11:4f:f6:da:75:95:12:c7:d7:fd:8e:23:fd:
                    c9:7f:7a:60:9d:dc:9c:3e:58:84:d8:c0:5c:b3:c5:
                    a6:d0:d8:a3:3c:d2:b1:68:3f:4e:39:70:cf:0d:7f:
                    c0:1a:41:c0:57:c0:01:ad:20:43:b4:f1:b5:d7:87:
                    10:61:de:ed:36:fb:b2:7a:a1:67:b6:5c:c3:ad:b1:
                    f1:fd:ff
                Exponent: 65537 (0x10001)
        X509v3 extensions:
            X509v3 Basic Constraints: 
                CA:FALSE
            X509v3 Subject Key Identifier: 
                CD:B3:A9:08:6F:73:99:89:DB:9F:EE:50:5B:63:2F:85:F4:5C:1B:83
            X509v3 Authority Key Identifier: 
                keyid:52:AA:8A:2C:0F:A1:D1:40:27:C1:8F:CD:C1:11:24:6C:78:E7:E4:43

    Signature Algorithm: sha1WithRSAEncryption
         2d:d0:5d:43:18:57:ab:9e:0b:4b:af:a8:80:6d:46:bc:f3:3d:
         8c:fb:2e:15:e0:ba:c0:ed:80:05:0e:d3:97:14:80:d0:6f:cb:
         03:ff:f5:fc:9f:1a:d0:f3:aa:7e:54:4a:2c:c9:c0:a8:46:91:
         d4:95:94:2b:43:d2:03:a2:a4:a7:05:56:cf:61:bf:76:ef:31:
         42:74:4c:c5:55:27:b7:ac:26:00:6d:1a:36:f3:fa:e1:f6:01:
         18:dc:84:37:b3:d7:35:a9:9d:76:95:2a:15:6d:3b:9a:3f:c0:
         d5:d9:8b:00:3b:0a:a4:e2:c6:dc:4f:ce:f9:2c:02:36:29:5c:
         3f:a3:e8:3b:75:fb:d9:ce:d1:2b:61:83:ee:e6:29:28:67:b3:
         2f:44:58:cc:76:8f:11:d0:89:b2:37:68:77:a1:e2:a5:50:ca:
         86:de:d2:2f:ee:de:7d:9a:c1:51:14:db:78:92:88:0f:20:57:
         ac:2a:20:f3:67:0d:50:94:20:b3:ac:e9:43:b7:b0:1a:94:ba:
         7f:a3:88:72:e4:38:eb:bc:39:75:5b:bb:a1:05:2c:65:ca:9f:
         fb:91:54:c3:38:ef:11:5e:d7:2c:0a:fc:36:dc:47:9e:f8:e7:
         81:af:30:7f:56:ec:25:52:06:c8:4d:ae:ca:4a:66:96:47:df:
         54:58:2a:3a:bf:e8:8e:dd:fb:14:b4:d1:3c:32:b3:f0:d0:94:
         20:45:05:fc:3d:66:32:8d:33:42:44:a1:d0:4f:37:be:d3:0a:
         a1:3e:55:0f:c6:0c:3c:99:78:f3:0c:8b:8f:15:b9:6d:05:ca:
         5c:38:a9:3f:b4:91:39:c2:12:23:8d:36:d4:ea:1f:65:ad:32:
         d5:0c:f3:d5:f1:b6:5b:c0:23:83:5c:51:22:de:eb:60:01:a1:
         a0:a5:e7:e6:bf:f5:a7:b2:7b:d2:b5:d5:8f:16:4b:b3:00:6b:
         3b:76:a5:02:e9:97:74:59:e5:86:05:b2:cf:d4:e7:cb:76:2c:
         e6:eb:f3:79:a5:1d:27:f6:4c:cb:35:22:ec:0c:31:82:c1:74:
         45:32:53:f3:60:96:84:47:b7:e8:95:1f:7a:14:8b:fc:6c:c6:
         18:4e:92:45:2c:23:17:69:13:97:4a:fc:90:7f:8a:a2:96:70:
         80:6a:bf:b1:64:43:54:00:a1:6d:7e:c7:02:2a:db:59:92:96:
         7e:19:59:0a:23:16:e4:f7:db:d4:4b:fc:19:db:9e:eb:26:7a:
         ff:ba:b5:c3:9f:63:d5:02:a2:2d:d3:96:d2:d4:8a:59:3c:6c:
         7b:2e:49:b1:36:db:52:b4:4d:6a:1f:9a:3c:05:c8:92:e9:80:
         ce:75:ed:d5:c3:0c:65:e1
-----BEGIN CERTIFICATE-----
MIIE+jCCAuKgAwIBAgIDEAADMA0GCSqGSIb3DQEBBQUAMBIxEDAOBgNVBAMMB09j
ZWRvQ0EwHhcNMTgwMzA5MDYzMTU4WhcNNDUwNzI0MDYzMTU4WjAeMRwwGgYDVQQD
DBNtc2ctc3lzLnJpdmVyYmVkLmNjMIICIjANBgkqhkiG9w0BAQEFAAOCAg8AMIIC
CgKCAgEAo+Hkf5dkmj4eFWlZ/kn1h9c7RbQS/bHV4yXJafdT8rRiFJETSwkk8MG/
go1Pu/n8kpQo7OgkYklI5d33HuXTP8RPdKyxfOlJOcryjQlV2GNmo2iCUVbab/o2
MzYIOnDj+Qjwxe4shST+GgUh53B6KwMuYn8y9UfNTlp7t2+WQ3IX9vPGB/8IDuS6
KPNf7h+ueyGwvOVELgYVEsVBawzrjP657WPpJbtaEcQ9XFD4nKbtQ3vIox5OSYQO
V/G8DfweOvq8qt026104Q+jdA941oDUgqXcaJKNWVuW+hFYLaHHP+tj8+YWhucbx
SCiGZdiR4OyYL2DeDxj6/1FpwPtyB5JwgSasfG4t7m76vaTyjxyB1fMsSuKMnruF
h06D9JR+dOwDQ1StWIEo1kLnrYYyDyp8PQulS1UdftxbnbhblWocoNkIj+b5HON8
N13WTDUIklBePzf2MAiQLtL4Lrtq5bo+FaQJM+M5/X8BKZiC6ObDVEYgxjscDy0L
6Duxxf8WnDES7iiqv8LbXf2tUqz+L0WZZl/kL+Ma0AgXbhShsoyFhABbvS8PdP3Y
1+tGYlVzmM362BFP9tp1lRLH1/2OI/3Jf3pgndycPliE2MBcs8Wm0NijPNKxaD9O
OXDPDX/AGkHAV8ABrSBDtPG114cQYd7tNvuyeqFntlzDrbHx/f8CAwEAAaNNMEsw
CQYDVR0TBAIwADAdBgNVHQ4EFgQUzbOpCG9zmYnbn+5QW2MvhfRcG4MwHwYDVR0j
BBgwFoAUUqqKLA+h0UAnwY/NwREkbHjn5EMwDQYJKoZIhvcNAQEFBQADggIBAC3Q
XUMYV6ueC0uvqIBtRrzzPYz7LhXgusDtgAUO05cUgNBvywP/9fyfGtDzqn5USizJ
wKhGkdSVlCtD0gOipKcFVs9hv3bvMUJ0TMVVJ7esJgBtGjbz+uH2ARjchDez1zWp
nXaVKhVtO5o/wNXZiwA7CqTixtxPzvksAjYpXD+j6Dt1+9nO0Sthg+7mKShnsy9E
WMx2jxHQibI3aHeh4qVQyobe0i/u3n2awVEU23iSiA8gV6wqIPNnDVCUILOs6UO3
sBqUun+jiHLkOOu8OXVbu6EFLGXKn/uRVMM47xFe1ywK/DbcR57454GvMH9W7CVS
BshNrspKZpZH31RYKjq/6I7d+xS00Twys/DQlCBFBfw9ZjKNM0JEodBPN77TCqE+
VQ/GDDyZePMMi48VuW0Fylw4qT+0kTnCEiONNtTqH2WtMtUM89XxtlvAI4NcUSLe
62ABoaCl5+a/9aeye9K11Y8WS7MAazt2pQLpl3RZ5YYFss/U58t2LObr83mlHSf2
TMs1IuwMMYLBdEUyU/NgloRHt+iVH3oUi/xsxhhOkkUsIxdpE5dK/JB/iqKWcIBq
v7FkQ1QAoW1+xwIq21mSln4ZWQojFuT329RL/Bnbnusmev+6tcOfY9UCoi3TltLU
ilk8bHsuSbE221K0TWofmjwFyJLpgM517dXDDGXh
-----END CERTIFICATE-----
