Certificate:
    Data:
        Version: 3 (0x2)
        Serial Number: 1048580 (0x100004)
    Signature Algorithm: sha1WithRSAEncryption
        Issuer: CN=OcedoCA
        Validity
            Not Before: Mar  9 06:31:58 2018 GMT
            Not After : Jul 24 06:31:58 2045 GMT
        Subject: CN=scm-telemetry.eng-olympus.com
        Subject Public Key Info:
            Public Key Algorithm: rsaEncryption
                Public-Key: (4096 bit)
                Modulus:
                    00:e2:a5:ed:f8:c8:5f:08:e6:dc:6c:2f:fc:99:2e:
                    47:89:6c:a9:f5:77:ef:a6:e9:b7:b5:5f:ff:34:0e:
                    ef:ea:51:86:72:b5:9d:48:32:35:e3:10:21:56:87:
                    46:95:f9:32:00:39:94:3b:ca:29:0e:58:30:8c:9c:
                    6c:70:77:e4:47:8d:36:31:4b:7b:86:a3:5e:87:de:
                    d9:7f:ed:2b:b8:9f:c4:84:dc:2a:68:44:ad:d9:e1:
                    92:cc:f6:d3:80:61:fa:fb:80:b9:97:db:99:1c:0a:
                    6c:67:e2:42:1b:84:56:3b:ff:64:46:16:7b:34:aa:
                    11:7f:14:93:db:44:e2:09:06:33:6b:44:67:7c:d0:
                    2f:cb:18:ba:8c:7b:99:85:fd:9e:ff:9f:0f:d9:71:
                    7b:76:f6:ac:9c:17:e0:53:e0:b2:48:0b:b1:56:d9:
                    41:ec:a3:61:22:4f:4a:df:6f:89:4d:cc:e7:52:5a:
                    05:61:a9:b2:8f:87:fa:92:a7:ad:5c:5f:2d:31:c0:
                    6e:a0:86:73:d6:df:90:96:bb:99:f6:4a:82:84:0b:
                    20:87:fa:56:e5:1d:b4:b3:d1:9e:be:ee:92:17:1d:
                    dc:cf:6c:1d:52:28:9c:bc:d0:ad:3b:5c:20:1f:16:
                    4b:72:1a:93:b9:36:c4:b2:38:49:45:b8:cc:d5:9d:
                    39:8c:1c:0b:f1:bf:dd:45:99:88:56:3a:70:c2:9c:
                    03:72:d5:cf:ef:78:8f:53:4a:82:ab:d1:d9:3a:af:
                    63:69:7d:87:ab:d8:4a:f0:10:4f:97:31:33:ed:fc:
                    73:78:3a:c6:cf:33:5e:af:3b:f2:83:da:9b:c3:31:
                    ed:2a:88:c9:bc:0c:e6:8a:62:9e:9e:94:60:91:8b:
                    25:f8:26:51:6d:2e:a6:74:ad:a0:ee:5d:2f:54:df:
                    5c:0e:49:23:14:96:ce:cc:d2:da:ee:66:cd:84:1e:
                    24:01:2b:12:51:ca:31:c6:bb:3b:fd:93:b8:47:ce:
                    c3:72:95:1b:55:64:2e:6f:79:e7:0a:be:cb:11:77:
                    80:0e:c9:cb:ce:45:3a:ea:31:3b:cc:48:69:68:a7:
                    87:0b:93:ac:b0:f1:2b:07:cc:3a:30:e2:77:1d:b7:
                    35:fa:29:d6:d4:d1:51:49:ae:27:05:05:b8:4b:a1:
                    f0:52:33:ed:33:ee:30:d6:46:59:14:2a:1f:09:dd:
                    c1:79:03:4e:e3:5e:ab:a4:1e:f5:85:4f:70:37:68:
                    fc:8c:10:d2:a1:71:57:df:8e:2d:3d:d2:47:99:3f:
                    5a:26:8e:38:c4:84:8a:ff:e6:f0:cd:ac:71:4a:ac:
                    c8:7a:8b:c6:98:0c:f4:b7:f2:42:ba:9a:90:37:89:
                    a5:5f:69
                Exponent: 65537 (0x10001)
        X509v3 extensions:
            X509v3 Basic Constraints: 
                CA:FALSE
            X509v3 Subject Key Identifier: 
                E6:63:7F:E6:F9:60:8C:04:0C:8C:14:8B:B6:14:39:43:C1:AF:02:D7
            X509v3 Authority Key Identifier: 
                keyid:52:AA:8A:2C:0F:A1:D1:40:27:C1:8F:CD:C1:11:24:6C:78:E7:E4:43

    Signature Algorithm: sha1WithRSAEncryption
         9f:17:9d:6e:3f:d7:79:4a:42:69:98:d8:c9:aa:bd:34:67:8c:
         cc:e9:80:2b:ca:5c:99:e0:83:a6:1c:30:97:59:2c:f5:79:3c:
         60:18:2c:76:2c:a0:6c:02:25:a1:b7:a9:81:aa:63:17:36:d4:
         30:c8:21:c9:14:14:09:de:6f:00:ce:7a:84:a8:82:f8:f2:3a:
         71:3c:46:1c:ba:3a:57:8c:c7:23:38:b3:51:df:64:a2:b2:82:
         6f:32:87:53:a7:94:aa:f3:69:81:25:2f:f6:ac:da:90:03:11:
         58:a5:a1:48:3d:3b:16:2b:dc:95:09:c5:5a:22:9e:5c:f0:17:
         bd:f3:4e:67:cd:fe:bb:a1:a6:bd:c4:2a:8c:c7:6c:c7:f9:34:
         4b:ed:8c:4a:21:43:56:ab:7b:ce:b5:1d:67:ba:59:86:14:e3:
         a4:70:43:f9:04:02:9b:de:a6:1a:bb:fe:9b:0a:d7:5d:df:51:
         a5:a7:45:43:08:09:d5:a0:8a:88:86:83:04:d2:0d:b7:bb:95:
         36:93:38:f2:87:96:c0:21:dd:bf:87:71:a7:48:70:69:3b:8d:
         21:0b:d9:03:43:71:45:64:87:cf:d5:4c:ec:b4:08:61:d5:3c:
         d7:13:16:f1:06:c6:b8:09:cf:07:dc:fc:81:dc:eb:5a:e1:fa:
         9c:62:59:4c:20:91:ba:9a:4c:c6:65:da:93:61:b3:b5:42:6d:
         4d:f6:ed:4b:37:c7:8d:92:c8:ae:1c:c4:31:8f:94:a0:e9:44:
         1d:76:5c:d7:17:05:33:bc:6f:cb:cc:a8:36:79:d9:af:92:eb:
         94:18:d7:92:2d:5a:38:85:1d:a4:b7:ea:4c:62:0e:b3:cc:62:
         88:bc:99:b0:cc:28:3c:66:4c:5f:52:47:48:69:e9:56:fb:cf:
         b8:ab:3c:9d:10:37:b6:eb:28:7e:08:77:0b:6b:1a:16:71:e8:
         a4:25:c3:49:75:e7:89:d7:eb:7d:41:d9:ec:ea:d1:21:e5:a8:
         2e:3e:1d:d6:47:65:10:b1:48:94:8c:15:2d:18:67:33:6f:41:
         b6:49:23:0a:78:1f:48:eb:c9:d5:ab:4b:e5:01:ba:7d:9d:1e:
         d2:c8:6c:8a:11:fe:a1:f5:2f:2e:2e:d7:b6:94:e5:77:81:4d:
         87:2d:bd:f6:01:86:27:30:5d:63:d5:2d:d0:35:b5:4f:57:0d:
         36:8f:e0:3d:32:03:6a:50:23:23:bd:ff:8a:85:32:83:4f:63:
         ef:ea:2e:1a:8a:01:c7:33:d2:7d:cb:80:74:27:87:8d:7b:fe:
         12:3e:c7:90:77:40:b3:4a:f8:08:13:03:df:c3:4f:ec:42:76:
         14:19:19:48:1f:58:73:b4
-----BEGIN CERTIFICATE-----
MIIFBDCCAuygAwIBAgIDEAAEMA0GCSqGSIb3DQEBBQUAMBIxEDAOBgNVBAMMB09j
ZWRvQ0EwHhcNMTgwMzA5MDYzMTU4WhcNNDUwNzI0MDYzMTU4WjAoMSYwJAYDVQQD
DB1zY20tdGVsZW1ldHJ5LmVuZy1vbHltcHVzLmNvbTCCAiIwDQYJKoZIhvcNAQEB
BQADggIPADCCAgoCggIBAOKl7fjIXwjm3Gwv/JkuR4lsqfV376bpt7Vf/zQO7+pR
hnK1nUgyNeMQIVaHRpX5MgA5lDvKKQ5YMIycbHB35EeNNjFLe4ajXofe2X/tK7if
xITcKmhErdnhksz204Bh+vuAuZfbmRwKbGfiQhuEVjv/ZEYWezSqEX8Uk9tE4gkG
M2tEZ3zQL8sYuox7mYX9nv+fD9lxe3b2rJwX4FPgskgLsVbZQeyjYSJPSt9viU3M
51JaBWGpso+H+pKnrVxfLTHAbqCGc9bfkJa7mfZKgoQLIIf6VuUdtLPRnr7ukhcd
3M9sHVIonLzQrTtcIB8WS3Iak7k2xLI4SUW4zNWdOYwcC/G/3UWZiFY6cMKcA3LV
z+94j1NKgqvR2TqvY2l9h6vYSvAQT5cxM+38c3g6xs8zXq878oPam8Mx7SqIybwM
5opinp6UYJGLJfgmUW0upnStoO5dL1TfXA5JIxSWzszS2u5mzYQeJAErElHKMca7
O/2TuEfOw3KVG1VkLm955wq+yxF3gA7Jy85FOuoxO8xIaWinhwuTrLDxKwfMOjDi
dx23Nfop1tTRUUmuJwUFuEuh8FIz7TPuMNZGWRQqHwndwXkDTuNeq6Qe9YVPcDdo
/IwQ0qFxV9+OLT3SR5k/WiaOOMSEiv/m8M2scUqsyHqLxpgM9LfyQrqakDeJpV9p
AgMBAAGjTTBLMAkGA1UdEwQCMAAwHQYDVR0OBBYEFOZjf+b5YIwEDIwUi7YUOUPB
rwLXMB8GA1UdIwQYMBaAFFKqiiwPodFAJ8GPzcERJGx45+RDMA0GCSqGSIb3DQEB
BQUAA4ICAQCfF51uP9d5SkJpmNjJqr00Z4zM6YArylyZ4IOmHDCXWSz1eTxgGCx2
LKBsAiWht6mBqmMXNtQwyCHJFBQJ3m8AznqEqIL48jpxPEYcujpXjMcjOLNR32Si
soJvModTp5Sq82mBJS/2rNqQAxFYpaFIPTsWK9yVCcVaIp5c8Be9805nzf67oaa9
xCqMx2zH+TRL7YxKIUNWq3vOtR1nulmGFOOkcEP5BAKb3qYau/6bCtdd31Glp0VD
CAnVoIqIhoME0g23u5U2kzjyh5bAId2/h3GnSHBpO40hC9kDQ3FFZIfP1UzstAhh
1TzXExbxBsa4Cc8H3PyB3Ota4fqcYllMIJG6mkzGZdqTYbO1Qm1N9u1LN8eNksiu
HMQxj5Sg6UQddlzXFwUzvG/LzKg2edmvkuuUGNeSLVo4hR2kt+pMYg6zzGKIvJmw
zCg8ZkxfUkdIaelW+8+4qzydEDe26yh+CHcLaxoWceikJcNJdeeJ1+t9Qdns6tEh
5aguPh3WR2UQsUiUjBUtGGczb0G2SSMKeB9I68nVq0vlAbp9nR7SyGyKEf6h9S8u
Lte2lOV3gU2HLb32AYYnMF1j1S3QNbVPVw02j+A9MgNqUCMjvf+KhTKDT2Pv6i4a
igHHM9J9y4B0J4eNe/4SPseQd0CzSvgIEwPfw0/sQnYUGRlIH1hztA==
-----END CERTIFICATE-----
