Certificate:
    Data:
        Version: 3 (0x2)
        Serial Number: 1048583 (0x100007)
    Signature Algorithm: sha1WithRSAEncryption
        Issuer: CN=OcedoCA
        Validity
            Not Before: Mar  9 08:41:57 2018 GMT
            Not After : Jul 24 08:41:57 2045 GMT
        Subject: CN=XN57BF71C81F2EC3
        Subject Public Key Info:
            Public Key Algorithm: rsaEncryption
                Public-Key: (4096 bit)
                Modulus:
                    00:ba:84:a1:82:b2:d4:82:29:a7:ab:3c:4e:00:f3:
                    a7:be:2e:59:2e:dd:f2:19:18:6e:30:c3:93:72:f6:
                    3d:19:31:12:ef:1e:29:3a:83:96:fb:7e:18:25:ff:
                    3c:89:4f:85:38:03:3e:f7:40:18:23:fd:3c:d2:b7:
                    a1:5a:11:10:90:7b:eb:52:28:72:ea:e5:28:f8:74:
                    02:46:55:a5:3f:cc:18:f6:13:78:1c:fe:ba:8b:5c:
                    99:32:34:ec:e5:46:4b:82:1c:e2:df:2b:b7:df:ab:
                    83:27:13:9e:8c:3b:26:8e:e5:a2:d0:74:16:94:fe:
                    bb:c6:c9:d8:45:60:be:f3:09:39:97:5d:9d:77:a3:
                    76:3b:7d:af:a2:93:77:3c:13:c7:b3:4b:00:38:29:
                    ef:c2:b2:93:0a:9d:82:5d:a2:c0:d8:a8:e7:90:08:
                    53:72:e9:fb:d9:0e:7e:d6:3a:c9:46:4f:31:e5:c6:
                    71:23:e6:bc:c6:11:7b:da:77:45:e3:d0:e8:65:fd:
                    ec:a2:73:a2:48:80:24:8d:13:fd:13:5e:6c:c9:f6:
                    d0:46:9c:ff:43:b8:90:21:99:54:2c:fa:1d:db:ae:
                    b1:cb:ec:2b:7b:c6:31:9e:4a:e9:8e:23:8f:87:4b:
                    7a:5c:22:80:d9:95:fa:93:15:83:c2:b3:0a:4d:48:
                    57:10:82:60:c5:2f:34:67:3d:4a:f5:d1:61:1c:46:
                    38:d7:7e:74:6e:a0:25:99:a4:9a:da:66:89:80:20:
                    f2:b1:c3:ba:3a:42:37:0e:31:4e:f0:6a:f3:2c:a9:
                    0b:67:31:67:37:63:c7:84:f6:80:eb:00:22:8c:eb:
                    4a:da:d2:dc:8f:30:7b:8f:5b:24:fd:d5:85:87:dd:
                    21:51:f5:69:25:67:49:ff:47:d9:9b:97:cf:5c:18:
                    75:3e:04:39:c8:fa:24:a6:c9:7c:59:09:51:4f:2b:
                    dc:46:a4:a3:a2:16:82:62:39:bf:b6:e4:c1:20:1e:
                    2e:bb:4a:d3:4a:94:3f:93:76:78:20:35:bc:44:77:
                    e3:59:be:e9:f8:f0:af:53:f3:57:f2:31:b8:9a:02:
                    ff:4e:ca:fd:f1:3f:bf:de:35:6e:ea:d7:b1:1a:bb:
                    ec:31:bd:a3:8f:cc:70:13:be:bb:e5:2d:95:c1:81:
                    8a:fe:d4:5c:33:4a:ff:5d:d4:a2:72:ff:e8:25:1d:
                    fc:52:74:e7:c7:e6:0c:09:93:51:f6:a2:c3:33:fe:
                    8e:44:dc:45:d3:6b:19:7e:ac:3b:44:ad:7d:8f:03:
                    60:2c:72:2c:62:a9:7e:5b:4b:f1:40:6e:34:f8:39:
                    77:f2:5a:12:83:d9:e9:06:1c:f4:ef:26:5c:cc:b8:
                    fa:69:51
                Exponent: 65537 (0x10001)
        X509v3 extensions:
            X509v3 Basic Constraints: 
                CA:FALSE
            X509v3 Subject Key Identifier: 
                08:BF:0C:8C:31:01:D2:B5:B6:D4:78:C5:93:30:3D:1E:C6:8D:73:4F
            X509v3 Authority Key Identifier: 
                keyid:52:AA:8A:2C:0F:A1:D1:40:27:C1:8F:CD:C1:11:24:6C:78:E7:E4:43

    Signature Algorithm: sha1WithRSAEncryption
         6c:19:a7:5e:4d:c0:90:7a:b6:9a:22:0f:b3:9c:19:bc:1d:2e:
         65:6c:1f:8a:6b:97:0c:36:e7:a2:1f:66:14:e5:a0:39:a6:a7:
         d1:9e:a8:98:71:02:07:ac:c5:81:11:98:0f:e0:bd:48:0f:aa:
         54:f1:c8:10:9d:d0:15:03:03:b1:93:be:64:bf:c6:ba:05:42:
         9b:0f:fb:ca:ef:17:7f:41:14:80:44:38:5f:cc:02:61:b5:d4:
         2f:d6:eb:4a:11:ac:5a:06:0b:74:5c:64:a1:4a:ca:c6:6c:64:
         d1:92:6b:7e:6c:4f:31:92:2e:d7:b2:bc:70:74:39:82:53:5a:
         b4:6b:64:ca:f6:d6:1a:ac:5c:01:a7:a0:bf:22:ee:a2:c7:d7:
         f5:12:99:bb:48:0d:fe:20:83:28:1f:6f:5d:9f:d9:c8:2f:1c:
         8f:fa:7d:9a:0f:99:29:fd:d3:41:3f:eb:15:b8:e0:95:1e:60:
         ff:0b:68:37:3b:a4:ce:72:ca:10:b8:dd:83:83:82:c3:90:b2:
         cd:94:24:99:51:36:da:48:8a:66:3c:e2:14:b3:3d:47:6c:e6:
         99:a2:60:48:a1:f9:0e:14:0f:d3:e7:54:bc:3d:ea:1a:d5:73:
         3e:f4:41:d8:30:bf:d4:37:9e:f5:f7:b1:23:d9:79:16:fc:54:
         c8:f6:98:7e:05:43:e2:d1:21:a3:50:10:ef:59:25:1c:78:ac:
         4b:48:62:9f:16:e5:ab:5d:82:36:23:2f:61:89:62:0c:bf:19:
         7e:c4:d2:a2:da:e7:1f:e2:a7:e4:87:1f:a0:cc:8b:38:58:f3:
         62:00:58:ec:a8:d0:d0:9d:c0:c6:51:05:5f:7e:e4:37:02:1f:
         a8:50:0b:68:bc:4b:0d:15:93:b2:42:66:c6:d4:c3:b2:8c:0a:
         90:0e:40:b7:58:fe:03:32:bb:42:fe:83:8f:ec:bc:17:fd:52:
         ff:52:3c:3a:a8:57:97:2b:88:61:65:43:e8:01:1e:f0:df:90:
         19:49:3e:47:2d:02:1d:5c:a8:3c:3f:a7:0b:36:98:1c:6a:f5:
         18:64:4c:21:94:42:36:97:17:c4:1c:0f:ea:24:2e:e3:dc:54:
         53:41:ed:5d:74:c8:f9:45:f4:76:be:b5:77:6c:77:7c:52:62:
         ea:7e:5e:88:68:c5:68:bb:ca:02:e5:1e:41:60:61:69:d9:49:
         88:c9:be:37:83:2d:8b:ae:2a:72:2d:67:56:51:33:5d:1c:1e:
         2d:d7:68:4a:25:0e:09:71:87:f9:47:62:87:7e:27:24:67:55:
         7e:fd:82:e0:0b:0a:25:c3:ab:3d:d6:08:30:d8:34:5e:41:61:
         d8:82:b8:87:5d:52:57:af
-----BEGIN CERTIFICATE-----
MIIE9zCCAt+gAwIBAgIDEAAHMA0GCSqGSIb3DQEBBQUAMBIxEDAOBgNVBAMMB09j
ZWRvQ0EwHhcNMTgwMzA5MDg0MTU3WhcNNDUwNzI0MDg0MTU3WjAbMRkwFwYDVQQD
DBBYTjU3QkY3MUM4MUYyRUMzMIICIjANBgkqhkiG9w0BAQEFAAOCAg8AMIICCgKC
AgEAuoShgrLUgimnqzxOAPOnvi5ZLt3yGRhuMMOTcvY9GTES7x4pOoOW+34YJf88
iU+FOAM+90AYI/080rehWhEQkHvrUihy6uUo+HQCRlWlP8wY9hN4HP66i1yZMjTs
5UZLghzi3yu336uDJxOejDsmjuWi0HQWlP67xsnYRWC+8wk5l12dd6N2O32vopN3
PBPHs0sAOCnvwrKTCp2CXaLA2KjnkAhTcun72Q5+1jrJRk8x5cZxI+a8xhF72ndF
49DoZf3sonOiSIAkjRP9E15syfbQRpz/Q7iQIZlULPod266xy+wre8YxnkrpjiOP
h0t6XCKA2ZX6kxWDwrMKTUhXEIJgxS80Zz1K9dFhHEY41350bqAlmaSa2maJgCDy
scO6OkI3DjFO8GrzLKkLZzFnN2PHhPaA6wAijOtK2tLcjzB7j1sk/dWFh90hUfVp
JWdJ/0fZm5fPXBh1PgQ5yPokpsl8WQlRTyvcRqSjohaCYjm/tuTBIB4uu0rTSpQ/
k3Z4IDW8RHfjWb7p+PCvU/NX8jG4mgL/Tsr98T+/3jVu6texGrvsMb2jj8xwE767
5S2VwYGK/tRcM0r/XdSicv/oJR38UnTnx+YMCZNR9qLDM/6ORNxF02sZfqw7RK19
jwNgLHIsYql+W0vxQG40+Dl38loSg9npBhz07yZczLj6aVECAwEAAaNNMEswCQYD
VR0TBAIwADAdBgNVHQ4EFgQUCL8MjDEB0rW21HjFkzA9HsaNc08wHwYDVR0jBBgw
FoAUUqqKLA+h0UAnwY/NwREkbHjn5EMwDQYJKoZIhvcNAQEFBQADggIBAGwZp15N
wJB6tpoiD7OcGbwdLmVsH4prlww256IfZhTloDmmp9GeqJhxAgesxYERmA/gvUgP
qlTxyBCd0BUDA7GTvmS/xroFQpsP+8rvF39BFIBEOF/MAmG11C/W60oRrFoGC3Rc
ZKFKysZsZNGSa35sTzGSLteyvHB0OYJTWrRrZMr21hqsXAGnoL8i7qLH1/USmbtI
Df4ggygfb12f2cgvHI/6fZoPmSn900E/6xW44JUeYP8LaDc7pM5yyhC43YODgsOQ
ss2UJJlRNtpIimY84hSzPUds5pmiYEih+Q4UD9PnVLw96hrVcz70Qdgwv9Q3nvX3
sSPZeRb8VMj2mH4FQ+LRIaNQEO9ZJRx4rEtIYp8W5atdgjYjL2GJYgy/GX7E0qLa
5x/ip+SHH6DMizhY82IAWOyo0NCdwMZRBV9+5DcCH6hQC2i8Sw0Vk7JCZsbUw7KM
CpAOQLdY/gMyu0L+g4/svBf9Uv9SPDqoV5criGFlQ+gBHvDfkBlJPkctAh1cqDw/
pws2mBxq9RhkTCGUQjaXF8QcD+okLuPcVFNB7V10yPlF9Ha+tXdsd3xSYup+Xoho
xWi7ygLlHkFgYWnZSYjJvjeDLYuuKnItZ1ZRM10cHi3XaEolDglxh/lHYod+JyRn
VX79guALCiXDqz3WCDDYNF5BYdiCuIddUlev
-----END CERTIFICATE-----
