Certificate:
    Data:
        Version: 3 (0x2)
        Serial Number: 1048579 (0x100003)
    Signature Algorithm: sha1WithRSAEncryption
        Issuer: CN=OcedoCA
        Validity
            Not Before: Apr 26 20:50:20 2018 GMT
            Not After : Sep 10 20:50:20 2045 GMT
        Subject: CN=msg-sys.riverbed.cc
        Subject Public Key Info:
            Public Key Algorithm: rsaEncryption
                Public-Key: (4096 bit)
                Modulus:
                    00:b5:4a:d3:19:1d:ab:db:cb:87:c5:de:bc:e9:9b:
                    ad:be:e4:e6:78:4f:f5:e6:6a:1f:2a:9f:43:f3:42:
                    26:6c:d5:d3:11:c4:35:d4:9b:17:0d:08:27:95:f7:
                    22:1a:0d:fc:1e:11:27:65:4e:ac:43:88:57:21:1a:
                    6e:97:02:91:09:7b:39:5f:61:35:4b:26:c1:24:21:
                    4c:3f:19:14:76:00:ee:69:10:5d:12:80:f4:ef:0c:
                    c6:74:80:8d:ba:46:f7:c4:e2:ea:c5:43:c8:76:8d:
                    3c:a0:bd:04:60:8c:a7:33:87:b7:2c:4e:dd:e8:d0:
                    45:f8:38:49:41:b5:78:9b:b5:dc:e5:a0:54:5f:8c:
                    ef:8c:76:6c:b4:9c:58:1e:5d:3d:3b:81:0c:56:ad:
                    eb:30:f0:a1:6a:60:af:84:9a:a6:88:23:13:ac:60:
                    a4:48:32:bd:e8:e1:2a:07:d6:89:f3:c3:0f:e9:15:
                    d3:2a:70:e6:a5:8b:4b:6b:b8:4e:fc:79:90:a6:06:
                    c9:f1:58:dc:a1:05:ad:d1:57:20:2d:5c:79:90:5d:
                    2b:73:70:a2:43:17:0d:34:ee:48:3b:65:1b:ca:c9:
                    5e:50:4b:e8:b5:02:99:6d:fa:d7:e5:13:89:3e:aa:
                    7f:29:22:63:b8:0f:be:ee:98:d0:04:16:46:02:9a:
                    1f:d9:ae:53:f6:65:af:76:f4:df:42:7b:ee:fd:fb:
                    d6:63:c1:59:65:37:24:ad:52:19:b8:0d:bd:7f:f7:
                    20:f5:24:a5:2c:9d:b1:88:92:7d:6a:6a:eb:6d:03:
                    99:0b:dc:ff:45:89:a4:fa:4d:b1:79:54:26:fe:ea:
                    2c:7d:26:d4:a9:b2:df:53:26:3d:c0:bc:53:ca:43:
                    cb:86:9b:19:18:6f:69:38:4a:da:1a:ae:57:cd:3d:
                    cd:5e:ef:80:ff:30:2b:05:37:e0:f5:27:34:7f:c3:
                    01:0c:06:7e:1a:9b:87:df:63:60:b1:1f:da:2c:fe:
                    8f:97:03:e8:df:dd:63:9c:6a:e2:94:64:12:ee:89:
                    04:d6:13:70:da:1d:dd:eb:14:76:78:15:f3:9d:1c:
                    37:69:6d:36:f6:fa:5e:eb:48:91:c2:b5:cc:3d:dc:
                    e7:87:22:73:54:fa:b5:b1:b8:b7:1d:f4:c6:38:89:
                    ae:92:5a:46:89:ea:2e:2c:57:e0:f6:79:1b:a4:06:
                    38:15:6c:b3:3f:69:ac:18:5f:1c:5c:3b:7a:1d:e6:
                    9f:da:15:6c:c9:28:8a:7b:6b:7d:62:ca:0a:60:e8:
                    13:88:66:30:a4:35:d3:5a:be:18:9d:3c:dc:62:b4:
                    10:92:2a:19:3a:74:4e:3c:3c:0f:35:90:a5:db:72:
                    3c:14:1d
                Exponent: 65537 (0x10001)
        X509v3 extensions:
            X509v3 Basic Constraints: 
                CA:FALSE
            X509v3 Subject Key Identifier: 
                47:0B:3F:7A:98:43:6B:4A:49:10:F5:18:03:99:12:67:A1:CC:2C:56
            X509v3 Authority Key Identifier: 
                keyid:B4:3A:05:1C:4C:3A:52:F8:A4:0C:E4:7D:E5:46:01:13:A8:6E:A1:80

    Signature Algorithm: sha1WithRSAEncryption
         b5:59:48:e9:6a:e8:73:38:7c:7e:d4:7f:e2:fb:08:c9:30:fd:
         2e:ca:2b:58:24:6a:c9:87:b4:08:ae:0f:bd:e9:df:97:6c:09:
         fb:58:63:1a:f3:98:1a:a7:01:ae:8c:d5:db:ba:c7:c6:36:4a:
         cf:1f:36:75:35:d4:fa:4f:70:1b:b3:3c:03:a3:51:23:6f:0c:
         07:71:a8:c7:3b:40:10:21:37:37:f7:ba:9d:42:94:7c:de:d1:
         2d:26:79:d6:a7:96:c2:89:ce:7b:21:60:7c:f7:76:71:ea:34:
         00:a1:a2:c0:60:e1:c0:6d:99:04:45:a4:a7:07:66:2e:14:a2:
         b5:5d:da:3a:31:ce:62:a0:f0:fc:c7:43:69:d5:01:b1:33:c2:
         c8:80:d8:4d:38:ad:0e:bc:6e:65:c0:c2:7b:11:f3:39:a6:32:
         14:28:e9:ba:51:77:7e:d0:26:3f:99:53:20:f6:08:72:74:f8:
         70:c4:dd:11:f4:83:d3:fb:e7:bd:5a:01:7d:ff:45:fa:9f:e2:
         43:e0:ac:22:03:15:3c:3d:28:0f:61:5a:14:f5:57:8d:81:e9:
         7d:9e:35:7a:03:b1:8d:39:ad:ad:55:77:0c:01:db:7d:d5:9f:
         39:69:c0:72:c2:e9:e7:cf:4e:15:b2:0e:30:87:80:5c:97:16:
         2d:36:e3:8f:f6:8b:eb:1e:07:49:c9:ac:f2:b6:62:74:f0:13:
         db:10:7f:9f:17:56:ab:63:8b:ad:bb:18:91:d9:3d:42:d5:45:
         e3:5f:1a:5a:46:b8:cf:11:9c:e0:91:1d:60:45:3a:e1:12:3f:
         40:14:dd:c5:02:e9:77:44:c6:fd:18:2a:9a:f8:ff:21:08:9c:
         df:ba:6c:53:20:16:b7:a6:e7:9a:de:1e:41:af:a0:65:ae:f8:
         2c:21:a1:53:65:dd:be:1f:df:2c:c9:d1:9b:df:b8:ac:24:1c:
         d8:10:3a:48:be:1c:69:45:aa:41:15:ba:3b:c2:56:81:84:a9:
         0d:69:62:32:5c:b9:13:ce:8f:18:2a:9f:b1:02:d0:3b:bc:cf:
         0e:b6:e7:5e:37:ee:76:8e:46:64:f8:ae:70:8f:d8:d1:eb:e5:
         34:d8:c9:a6:18:53:6e:ca:82:6b:fc:90:d1:e5:66:2f:ef:e5:
         33:54:0d:30:ab:7a:36:2b:f0:aa:52:b5:0d:c2:b3:ea:db:6d:
         36:94:04:c5:b2:ef:2a:f9:39:fe:f9:1b:9e:e0:bd:07:78:45:
         71:d8:4f:fa:ef:3e:76:0f:c7:16:d1:ff:90:c3:e1:aa:94:51:
         1a:e3:cb:06:79:78:60:23:b6:ab:71:38:13:e1:77:7c:82:d1:
         28:c1:80:90:6c:b9:97:2d
-----BEGIN CERTIFICATE-----
MIIE+jCCAuKgAwIBAgIDEAADMA0GCSqGSIb3DQEBBQUAMBIxEDAOBgNVBAMMB09j
ZWRvQ0EwHhcNMTgwNDI2MjA1MDIwWhcNNDUwOTEwMjA1MDIwWjAeMRwwGgYDVQQD
DBNtc2ctc3lzLnJpdmVyYmVkLmNjMIICIjANBgkqhkiG9w0BAQEFAAOCAg8AMIIC
CgKCAgEAtUrTGR2r28uHxd686ZutvuTmeE/15mofKp9D80ImbNXTEcQ11JsXDQgn
lfciGg38HhEnZU6sQ4hXIRpulwKRCXs5X2E1SybBJCFMPxkUdgDuaRBdEoD07wzG
dICNukb3xOLqxUPIdo08oL0EYIynM4e3LE7d6NBF+DhJQbV4m7Xc5aBUX4zvjHZs
tJxYHl09O4EMVq3rMPChamCvhJqmiCMTrGCkSDK96OEqB9aJ88MP6RXTKnDmpYtL
a7hO/HmQpgbJ8VjcoQWt0VcgLVx5kF0rc3CiQxcNNO5IO2UbysleUEvotQKZbfrX
5ROJPqp/KSJjuA++7pjQBBZGApof2a5T9mWvdvTfQnvu/fvWY8FZZTckrVIZuA29
f/cg9SSlLJ2xiJJ9amrrbQOZC9z/RYmk+k2xeVQm/uosfSbUqbLfUyY9wLxTykPL
hpsZGG9pOEraGq5XzT3NXu+A/zArBTfg9Sc0f8MBDAZ+GpuH32NgsR/aLP6PlwPo
391jnGrilGQS7okE1hNw2h3d6xR2eBXznRw3aW029vpe60iRwrXMPdznhyJzVPq1
sbi3HfTGOImuklpGieouLFfg9nkbpAY4FWyzP2msGF8cXDt6Heaf2hVsySiKe2t9
YsoKYOgTiGYwpDXTWr4YnTzcYrQQkioZOnROPDwPNZCl23I8FB0CAwEAAaNNMEsw
CQYDVR0TBAIwADAdBgNVHQ4EFgQURws/ephDa0pJEPUYA5kSZ6HMLFYwHwYDVR0j
BBgwFoAUtDoFHEw6UvikDOR95UYBE6huoYAwDQYJKoZIhvcNAQEFBQADggIBALVZ
SOlq6HM4fH7Uf+L7CMkw/S7KK1gkasmHtAiuD73p35dsCftYYxrzmBqnAa6M1du6
x8Y2Ss8fNnU11PpPcBuzPAOjUSNvDAdxqMc7QBAhNzf3up1ClHze0S0medanlsKJ
znshYHz3dnHqNAChosBg4cBtmQRFpKcHZi4UorVd2joxzmKg8PzHQ2nVAbEzwsiA
2E04rQ68bmXAwnsR8zmmMhQo6bpRd37QJj+ZUyD2CHJ0+HDE3RH0g9P7571aAX3/
Rfqf4kPgrCIDFTw9KA9hWhT1V42B6X2eNXoDsY05ra1VdwwB233VnzlpwHLC6efP
ThWyDjCHgFyXFi0244/2i+seB0nJrPK2YnTwE9sQf58XVqtji627GJHZPULVReNf
GlpGuM8RnOCRHWBFOuESP0AU3cUC6XdExv0YKpr4/yEInN+6bFMgFrem55reHkGv
oGWu+CwhoVNl3b4f3yzJ0ZvfuKwkHNgQOki+HGlFqkEVujvCVoGEqQ1pYjJcuRPO
jxgqn7EC0Du8zw6251437naORmT4rnCP2NHr5TTYyaYYU27Kgmv8kNHlZi/v5TNU
DTCrejYr8KpStQ3Cs+rbbTaUBMWy7yr5Of75G57gvQd4RXHYT/rvPnYPxxbR/5DD
4aqUURrjywZ5eGAjtqtxOBPhd3yC0SjBgJBsuZct
-----END CERTIFICATE-----
