Certificate:
    Data:
        Version: 3 (0x2)
        Serial Number: 1048578 (0x100002)
    Signature Algorithm: sha1WithRSAEncryption
        Issuer: CN=OcedoCA
        Validity
            Not Before: Apr 26 20:50:18 2018 GMT
            Not After : Sep 10 20:50:18 2045 GMT
        Subject: CN=cc-stats.ocedo.cc
        Subject Public Key Info:
            Public Key Algorithm: rsaEncryption
                Public-Key: (4096 bit)
                Modulus:
                    00:b5:4d:56:5f:25:aa:de:33:55:97:bc:4b:f9:94:
                    38:95:e7:01:a5:ec:ca:97:71:de:84:a9:40:c6:ac:
                    bb:a5:2d:01:95:34:51:12:9d:c4:67:6c:50:e1:16:
                    d6:40:31:09:1c:72:8b:7d:41:03:c2:87:d0:be:c7:
                    98:29:9e:8b:36:1a:a1:7a:53:3a:9c:29:fd:ac:12:
                    b8:0c:97:15:7e:e1:78:00:36:03:d9:72:dd:af:71:
                    77:c7:b7:45:5a:4c:38:c4:15:1d:da:b8:48:83:20:
                    5a:42:a6:24:07:e1:f2:5a:3f:19:58:3a:83:5e:c3:
                    11:00:e7:56:17:b4:8b:74:ed:24:c5:1d:d5:89:44:
                    87:e0:65:8c:a1:3a:ab:d0:88:31:83:cc:a2:34:7b:
                    59:85:0a:8a:a8:46:d8:57:94:9d:d7:2e:cd:09:54:
                    fe:14:29:67:d2:d8:af:51:83:75:e4:be:d1:27:24:
                    1a:73:07:d8:4b:a7:af:17:b6:a9:d0:7d:82:d9:4a:
                    f0:61:b2:29:73:bc:0e:7a:a4:3f:c9:d2:80:c3:c0:
                    30:f8:af:e9:3f:ff:d9:e0:01:c4:cd:2d:65:d7:98:
                    7e:08:b0:49:df:e7:9d:12:8b:f0:f1:58:80:47:f7:
                    0a:77:df:d9:ad:31:2b:ef:35:54:5b:58:f5:7d:61:
                    b4:ab:00:4b:05:07:ea:3f:1d:ea:1b:5c:93:ea:22:
                    d6:50:43:be:48:be:d4:87:89:a1:62:cf:bc:57:78:
                    3d:cc:9e:ad:30:64:c5:64:18:00:36:58:34:84:82:
                    d8:92:a7:45:d3:04:4a:4e:7a:eb:48:8e:d1:e7:5c:
                    e3:96:ba:07:f2:b5:c8:c4:62:37:1b:1c:20:c8:f9:
                    39:80:b2:55:0c:f6:cf:fd:26:4d:e6:61:76:2e:1e:
                    84:43:6c:22:97:85:13:a5:3e:f3:2f:aa:f2:8a:42:
                    21:9b:76:12:33:aa:1d:04:4c:92:8a:ef:d7:f4:29:
                    c5:af:da:46:f9:0c:51:00:31:a0:78:b6:85:3c:69:
                    9b:08:f8:5d:db:dd:42:42:61:9c:34:9d:2c:79:f5:
                    74:eb:cb:91:7e:78:0d:06:72:c9:0d:e4:6d:70:41:
                    4a:3e:de:be:c2:2a:4b:ea:59:db:6e:a2:d8:e4:cc:
                    1d:c0:75:18:14:67:81:36:5d:25:40:e2:e1:c2:3e:
                    98:7a:63:4f:db:46:eb:34:20:68:0c:cf:82:bf:52:
                    03:9a:4b:9e:73:57:4c:ca:fd:0c:a6:37:9b:6a:b1:
                    17:e3:a4:3a:90:5f:fe:bb:2f:00:8a:a2:96:64:8d:
                    6c:98:11:c9:07:9a:d8:f3:69:0f:13:0f:ab:c6:22:
                    dd:c4:2b
                Exponent: 65537 (0x10001)
        X509v3 extensions:
            X509v3 Basic Constraints: 
                CA:FALSE
            X509v3 Subject Key Identifier: 
                05:ED:D5:75:8E:B8:3C:A7:3D:56:7A:98:F3:C4:0B:40:ED:93:55:B2
            X509v3 Authority Key Identifier: 
                keyid:B4:3A:05:1C:4C:3A:52:F8:A4:0C:E4:7D:E5:46:01:13:A8:6E:A1:80

    Signature Algorithm: sha1WithRSAEncryption
         99:1e:21:33:5f:0b:36:2c:c7:cb:40:0f:b8:4e:b2:16:66:94:
         b3:26:c8:b3:c6:c3:64:82:48:f1:65:24:4f:c3:37:71:1b:61:
         79:62:ed:51:c7:d0:c2:50:f7:1e:0e:41:8d:46:4a:52:aa:01:
         51:83:df:7f:91:5a:ce:4d:0a:40:32:23:f4:e8:a0:b0:b9:fc:
         c1:e4:ec:11:c2:43:61:61:ec:f0:2a:7b:e1:2a:bc:eb:c6:5e:
         c2:60:97:6e:36:86:ad:b0:8a:a1:31:f6:5f:40:d4:e9:50:54:
         ae:80:0f:21:e7:97:1e:fd:d4:31:64:2b:f3:ce:28:d5:5d:21:
         30:51:a9:ae:44:2c:98:e8:68:b5:65:db:c4:0d:98:b2:fb:a6:
         39:f0:71:db:32:a2:a5:e5:5c:fa:e6:35:fc:d2:0d:a8:4b:df:
         17:e2:6f:ca:b6:b4:fb:09:b4:f4:ea:06:05:ce:8f:b0:d5:8d:
         80:2e:be:54:12:f7:9e:44:87:b7:6a:51:56:63:86:ae:54:d3:
         00:bc:dc:23:f6:7d:6c:b3:d4:d4:8c:41:32:61:60:db:92:b3:
         e8:b7:59:ac:a0:14:2d:19:92:d7:f4:6c:df:a6:84:b4:a8:0c:
         85:fd:b3:b1:b2:18:39:28:45:9c:58:52:e3:20:15:79:23:62:
         7a:82:7f:f1:ce:bd:ea:63:81:f2:7d:ab:b2:41:00:14:03:cd:
         59:b4:62:ae:5d:26:be:4e:8a:1d:ae:7d:15:46:7a:25:a2:da:
         b8:48:72:57:43:79:ee:c2:e2:0a:60:e4:67:42:e2:d5:1b:26:
         d7:74:66:13:4a:68:d1:48:89:07:b7:5a:bc:22:9d:92:c7:2a:
         e8:c1:be:ea:19:95:fd:bf:04:d5:4e:80:d6:b9:ce:c2:c8:32:
         5e:8e:18:a8:a8:bb:b5:95:a6:37:90:dd:de:c5:79:cb:e2:bc:
         37:86:b8:10:f2:f7:88:74:4c:d9:a6:ef:c6:6e:50:ed:83:6f:
         d2:e0:21:9c:77:23:21:bd:4b:c7:97:48:51:c8:46:91:44:1d:
         05:af:6c:9e:a1:24:27:b0:63:cc:38:35:7b:59:e9:8b:f0:ff:
         32:fc:b9:52:5d:b3:6b:38:36:da:a7:9a:1a:e1:58:9f:39:1f:
         ba:39:e0:f6:21:45:bb:2c:49:65:fb:0c:11:d5:19:18:9f:7f:
         54:61:e3:ed:99:15:52:dc:60:57:bd:e7:7e:09:14:02:9c:af:
         39:5a:1d:fd:72:0b:32:ab:47:f9:4c:48:c8:82:1c:66:6c:c3:
         b5:7e:9b:0a:41:34:ce:ae:ad:6d:eb:f5:12:d5:d2:ec:e8:f5:
         e7:40:d7:61:ae:51:6d:34
-----BEGIN CERTIFICATE-----
MIIE+DCCAuCgAwIBAgIDEAACMA0GCSqGSIb3DQEBBQUAMBIxEDAOBgNVBAMMB09j
ZWRvQ0EwHhcNMTgwNDI2MjA1MDE4WhcNNDUwOTEwMjA1MDE4WjAcMRowGAYDVQQD
DBFjYy1zdGF0cy5vY2Vkby5jYzCCAiIwDQYJKoZIhvcNAQEBBQADggIPADCCAgoC
ggIBALVNVl8lqt4zVZe8S/mUOJXnAaXsypdx3oSpQMasu6UtAZU0URKdxGdsUOEW
1kAxCRxyi31BA8KH0L7HmCmeizYaoXpTOpwp/awSuAyXFX7heAA2A9ly3a9xd8e3
RVpMOMQVHdq4SIMgWkKmJAfh8lo/GVg6g17DEQDnVhe0i3TtJMUd1YlEh+BljKE6
q9CIMYPMojR7WYUKiqhG2FeUndcuzQlU/hQpZ9LYr1GDdeS+0SckGnMH2Eunrxe2
qdB9gtlK8GGyKXO8DnqkP8nSgMPAMPiv6T//2eABxM0tZdeYfgiwSd/nnRKL8PFY
gEf3Cnff2a0xK+81VFtY9X1htKsASwUH6j8d6htck+oi1lBDvki+1IeJoWLPvFd4
PcyerTBkxWQYADZYNISC2JKnRdMESk5660iO0edc45a6B/K1yMRiNxscIMj5OYCy
VQz2z/0mTeZhdi4ehENsIpeFE6U+8y+q8opCIZt2EjOqHQRMkorv1/Qpxa/aRvkM
UQAxoHi2hTxpmwj4XdvdQkJhnDSdLHn1dOvLkX54DQZyyQ3kbXBBSj7evsIqS+pZ
226i2OTMHcB1GBRngTZdJUDi4cI+mHpjT9tG6zQgaAzPgr9SA5pLnnNXTMr9DKY3
m2qxF+OkOpBf/rsvAIqilmSNbJgRyQea2PNpDxMPq8Yi3cQrAgMBAAGjTTBLMAkG
A1UdEwQCMAAwHQYDVR0OBBYEFAXt1XWOuDynPVZ6mPPEC0Dtk1WyMB8GA1UdIwQY
MBaAFLQ6BRxMOlL4pAzkfeVGAROobqGAMA0GCSqGSIb3DQEBBQUAA4ICAQCZHiEz
Xws2LMfLQA+4TrIWZpSzJsizxsNkgkjxZSRPwzdxG2F5Yu1Rx9DCUPceDkGNRkpS
qgFRg99/kVrOTQpAMiP06KCwufzB5OwRwkNhYezwKnvhKrzrxl7CYJduNoatsIqh
MfZfQNTpUFSugA8h55ce/dQxZCvzzijVXSEwUamuRCyY6Gi1ZdvEDZiy+6Y58HHb
MqKl5Vz65jX80g2oS98X4m/KtrT7CbT06gYFzo+w1Y2ALr5UEveeRIe3alFWY4au
VNMAvNwj9n1ss9TUjEEyYWDbkrPot1msoBQtGZLX9GzfpoS0qAyF/bOxshg5KEWc
WFLjIBV5I2J6gn/xzr3qY4HyfauyQQAUA81ZtGKuXSa+Toodrn0VRnolotq4SHJX
Q3nuwuIKYORnQuLVGybXdGYTSmjRSIkHt1q8Ip2Sxyrowb7qGZX9vwTVToDWuc7C
yDJejhioqLu1laY3kN3exXnL4rw3hrgQ8veIdEzZpu/GblDtg2/S4CGcdyMhvUvH
l0hRyEaRRB0Fr2yeoSQnsGPMODV7WemL8P8y/LlSXbNrODbap5oa4VifOR+6OeD2
IUW7LEll+wwR1RkYn39UYePtmRVS3GBXved+CRQCnK85Wh39cgsyq0f5TEjIghxm
bMO1fpsKQTTOrq1t6/US1dLs6PXnQNdhrlFtNA==
-----END CERTIFICATE-----
