Certificate:
    Data:
        Version: 3 (0x2)
        Serial Number: 1048576 (0x100000)
    Signature Algorithm: sha1WithRSAEncryption
        Issuer: CN=OcedoCA
        Validity
            Not Before: Apr 26 20:50:16 2018 GMT
            Not After : Sep 10 20:50:16 2045 GMT
        Subject: CN=A_Admin
        Subject Public Key Info:
            Public Key Algorithm: rsaEncryption
                Public-Key: (4096 bit)
                Modulus:
                    00:c0:de:d0:69:38:6f:54:1e:d5:30:b3:1e:6c:ba:
                    23:c2:7d:d9:7d:7b:7f:34:19:97:e5:22:25:2a:66:
                    90:67:e5:d4:9a:d8:e3:b4:f0:40:a6:18:b9:4f:9a:
                    1f:08:bb:1a:ac:80:5b:4e:fe:a3:0c:0d:bd:62:72:
                    ce:e1:b5:5f:dc:7c:72:69:b0:e5:38:71:4f:3f:87:
                    d5:8a:9b:ce:c2:2a:b8:cf:14:ff:66:a5:ba:5e:ca:
                    b2:1c:fa:52:e3:74:ed:23:45:34:b1:c7:8a:35:8d:
                    e3:a9:e7:2b:51:9e:f3:0b:b9:d7:73:a9:d9:73:66:
                    70:0f:13:06:d8:60:41:13:ad:29:b4:44:23:fa:96:
                    4b:ca:62:10:e1:6a:fe:b5:db:39:06:3b:22:e8:e5:
                    de:9c:17:09:10:11:2a:0b:d1:4d:a4:48:53:7a:27:
                    ce:80:79:f4:9e:12:11:14:92:dc:4d:d5:4d:3e:2c:
                    20:36:5a:f1:bc:11:9a:97:fe:33:c6:39:f1:bd:bc:
                    db:6b:0c:ea:44:88:95:d4:a4:98:11:a9:41:1c:83:
                    60:83:17:90:1d:90:aa:cb:6b:2b:08:4f:58:d3:57:
                    9d:01:fc:e9:df:6d:94:88:06:2c:04:ba:62:94:49:
                    64:68:8e:42:cd:7a:a3:24:24:af:13:d0:a2:ae:de:
                    6e:3a:7c:2f:59:f4:f5:1f:53:03:22:0f:80:9f:01:
                    4d:69:31:95:a0:9a:e3:a9:63:cf:9f:a2:80:99:e9:
                    cf:cc:49:12:02:fe:7b:c8:f1:31:89:99:7d:29:ff:
                    67:92:54:42:7f:a7:ea:07:a3:31:12:50:a1:66:8b:
                    56:37:6a:a6:a0:ad:64:1e:9e:ad:2e:08:b4:48:6d:
                    ed:74:ba:bd:b7:de:9f:89:d0:56:df:30:91:50:0b:
                    fb:ae:a4:fb:da:99:af:b4:75:22:53:ef:42:7b:43:
                    32:db:d4:77:22:4a:38:6a:fd:a1:a7:c5:8b:a9:4c:
                    25:37:83:35:94:49:d0:5c:06:af:88:17:cc:55:e0:
                    6f:dc:c3:0c:55:a0:d3:07:9c:bb:72:52:1c:c2:0c:
                    8f:91:93:4d:55:75:0f:e4:0f:5b:2f:88:ee:ca:f8:
                    3a:1f:79:7c:e2:73:55:48:d7:b0:9d:fa:4b:0c:e9:
                    b1:6f:d8:a2:bc:42:cb:1f:42:26:d7:72:cd:fa:43:
                    f7:a7:b7:cd:ce:50:8c:f0:78:04:4e:be:9b:b5:34:
                    11:e4:7b:0f:2b:75:fb:24:83:6c:9a:c1:d1:17:e0:
                    35:50:92:01:53:1d:2b:ee:3e:c1:03:1d:45:21:0c:
                    ef:55:7b:e2:e3:7e:87:18:48:e2:fd:12:a5:66:ae:
                    18:20:a5
                Exponent: 65537 (0x10001)
        X509v3 extensions:
            X509v3 Basic Constraints: 
                CA:FALSE
            X509v3 Subject Key Identifier: 
                D3:60:DB:9A:D2:B7:E4:EE:2F:41:CC:B5:EC:44:40:5D:FD:39:BE:62
            X509v3 Authority Key Identifier: 
                keyid:B4:3A:05:1C:4C:3A:52:F8:A4:0C:E4:7D:E5:46:01:13:A8:6E:A1:80

    Signature Algorithm: sha1WithRSAEncryption
         1f:af:9c:a3:12:4c:f7:5d:59:b2:f2:93:09:94:93:dd:0b:56:
         90:e4:fb:06:ea:e0:26:a6:84:94:fe:26:83:46:2b:ab:42:5e:
         b5:2a:c5:ba:96:5b:08:e5:58:6c:99:29:f5:10:fd:41:61:31:
         8d:2b:3d:0e:bc:a9:9f:e5:f4:dc:46:2f:fd:cc:be:a1:60:ac:
         8a:aa:16:6d:82:70:4d:2f:51:c4:be:b2:c4:68:3b:1a:4d:e1:
         5d:60:4d:23:d3:dc:dd:b7:96:81:d6:81:c7:f7:c3:15:d2:b5:
         3a:96:46:96:38:e7:0d:f5:84:43:a4:15:41:a5:4d:db:e9:b9:
         61:46:0e:e1:2a:f9:33:74:35:aa:a8:a4:be:37:07:88:d6:cc:
         1f:3d:4d:e6:b9:13:6b:01:1a:93:25:c1:27:3b:87:2b:99:ca:
         f9:8c:e0:0e:52:c5:fe:f5:41:81:98:78:06:a7:04:ac:8b:14:
         49:ba:94:39:7d:14:ec:e4:02:97:35:ca:65:4e:e5:0b:6a:7c:
         46:ed:6d:f8:6a:e8:1f:0a:bc:4f:59:ce:2d:71:d9:bf:36:bd:
         41:1e:87:42:00:92:8d:4d:ee:bb:28:c8:d7:d3:7b:c6:6a:1f:
         d9:e2:07:74:41:92:fc:23:b6:58:95:2e:f2:d7:53:a9:46:23:
         35:9a:b2:c5:b1:a1:75:1c:56:70:ad:91:26:0c:e3:71:63:cf:
         8b:32:56:c0:73:ae:74:39:61:b7:1a:c5:be:e4:f9:c7:f7:b2:
         c4:48:b6:32:e3:b3:66:c4:1a:52:b0:58:0a:1f:8d:b6:44:ba:
         1c:aa:ea:ed:66:40:1d:71:02:c3:24:76:4b:ec:c5:ed:06:78:
         aa:e6:9e:1a:07:fc:89:0a:fe:5c:d3:ea:d9:60:6e:6c:4a:37:
         e5:00:81:18:ed:c8:46:39:3b:53:05:b9:1e:11:6a:a6:b9:b1:
         a3:18:5c:6f:e7:fb:88:08:27:81:57:b3:4d:47:5c:07:eb:cc:
         df:c6:c1:0c:ee:68:87:52:bb:a2:eb:72:45:f5:74:e2:c4:36:
         78:05:9f:af:10:cb:6c:77:e5:3e:aa:7c:a9:d7:fb:b7:5b:1c:
         b5:44:45:a4:eb:be:bb:5c:60:a4:ef:af:af:a1:fd:51:65:82:
         6e:81:de:e6:70:08:1f:8c:5c:c4:80:f6:37:1b:e2:69:55:95:
         3f:3d:fe:ac:55:1d:f0:d6:aa:21:9e:30:fd:a2:5e:6d:27:ed:
         5c:1d:33:20:b8:a1:09:31:ad:82:06:ef:f2:eb:16:25:1a:03:
         b1:e3:ab:49:64:7c:5d:d2:2d:2e:11:db:1f:2e:17:3e:5a:4e:
         8b:a8:59:f7:bb:c6:6e:cb
-----BEGIN CERTIFICATE-----
MIIE7jCCAtagAwIBAgIDEAAAMA0GCSqGSIb3DQEBBQUAMBIxEDAOBgNVBAMMB09j
ZWRvQ0EwHhcNMTgwNDI2MjA1MDE2WhcNNDUwOTEwMjA1MDE2WjASMRAwDgYDVQQD
DAdBX0FkbWluMIICIjANBgkqhkiG9w0BAQEFAAOCAg8AMIICCgKCAgEAwN7QaThv
VB7VMLMebLojwn3ZfXt/NBmX5SIlKmaQZ+XUmtjjtPBAphi5T5ofCLsarIBbTv6j
DA29YnLO4bVf3HxyabDlOHFPP4fVipvOwiq4zxT/ZqW6XsqyHPpS43TtI0U0sceK
NY3jqecrUZ7zC7nXc6nZc2ZwDxMG2GBBE60ptEQj+pZLymIQ4Wr+tds5Bjsi6OXe
nBcJEBEqC9FNpEhTeifOgHn0nhIRFJLcTdVNPiwgNlrxvBGal/4zxjnxvbzbawzq
RIiV1KSYEalBHINggxeQHZCqy2srCE9Y01edAfzp322UiAYsBLpilElkaI5CzXqj
JCSvE9Cirt5uOnwvWfT1H1MDIg+AnwFNaTGVoJrjqWPPn6KAmenPzEkSAv57yPEx
iZl9Kf9nklRCf6fqB6MxElChZotWN2qmoK1kHp6tLgi0SG3tdLq9t96fidBW3zCR
UAv7rqT72pmvtHUiU+9Ce0My29R3Iko4av2hp8WLqUwlN4M1lEnQXAaviBfMVeBv
3MMMVaDTB5y7clIcwgyPkZNNVXUP5A9bL4juyvg6H3l84nNVSNewnfpLDOmxb9ii
vELLH0Im13LN+kP3p7fNzlCM8HgETr6btTQR5HsPK3X7JINsmsHRF+A1UJIBUx0r
7j7BAx1FIQzvVXvi436HGEji/RKlZq4YIKUCAwEAAaNNMEswCQYDVR0TBAIwADAd
BgNVHQ4EFgQU02DbmtK35O4vQcy17ERAXf05vmIwHwYDVR0jBBgwFoAUtDoFHEw6
UvikDOR95UYBE6huoYAwDQYJKoZIhvcNAQEFBQADggIBAB+vnKMSTPddWbLykwmU
k90LVpDk+wbq4CamhJT+JoNGK6tCXrUqxbqWWwjlWGyZKfUQ/UFhMY0rPQ68qZ/l
9NxGL/3MvqFgrIqqFm2CcE0vUcS+ssRoOxpN4V1gTSPT3N23loHWgcf3wxXStTqW
RpY45w31hEOkFUGlTdvpuWFGDuEq+TN0NaqopL43B4jWzB89Tea5E2sBGpMlwSc7
hyuZyvmM4A5Sxf71QYGYeAanBKyLFEm6lDl9FOzkApc1ymVO5QtqfEbtbfhq6B8K
vE9Zzi1x2b82vUEeh0IAko1N7rsoyNfTe8ZqH9niB3RBkvwjtliVLvLXU6lGIzWa
ssWxoXUcVnCtkSYM43Fjz4syVsBzrnQ5Ybcaxb7k+cf3ssRItjLjs2bEGlKwWAof
jbZEuhyq6u1mQB1xAsMkdkvsxe0GeKrmnhoH/IkK/lzT6tlgbmxKN+UAgRjtyEY5
O1MFuR4Raqa5saMYXG/n+4gIJ4FXs01HXAfrzN/GwQzuaIdSu6LrckX1dOLENngF
n68Qy2x35T6qfKnX+7dbHLVERaTrvrtcYKTvr6+h/VFlgm6B3uZwCB+MXMSA9jcb
4mlVlT89/qxVHfDWqiGeMP2iXm0n7VwdMyC4oQkxrYIG7/LrFiUaA7Hjq0lkfF3S
LS4R2x8uFz5aTouoWfe7xm7L
-----END CERTIFICATE-----
